ARM GAS  C:\Users\User\AppData\Local\Temp\ccEEhKx4.s 			page 1


   1              		.cpu cortex-m3
   2              		.arch armv7-m
   3              		.fpu softvfp
   4              		.eabi_attribute 20, 1
   5              		.eabi_attribute 21, 1
   6              		.eabi_attribute 23, 3
   7              		.eabi_attribute 24, 1
   8              		.eabi_attribute 25, 1
   9              		.eabi_attribute 26, 1
  10              		.eabi_attribute 30, 1
  11              		.eabi_attribute 34, 1
  12              		.eabi_attribute 18, 4
  13              		.file	"main.c"
  14              		.text
  15              	.Ltext0:
  16              		.cfi_sections	.debug_frame
  17              		.section	.text.SSD1306_present,"ax",%progbits
  18              		.align	1
  19              		.syntax unified
  20              		.thumb
  21              		.thumb_func
  23              	SSD1306_present:
  24              	.LFB87:
  25              		.file 1 "Core/Src/USER/oled/ssd1306_oled_i2c.c"
   1:Core/Src/USER/oled/ssd1306_oled_i2c.c **** /* *****************************************************************************
   2:Core/Src/USER/oled/ssd1306_oled_i2c.c **** * File Name          : ssd1306_oled_i2c.c
   3:Core/Src/USER/oled/ssd1306_oled_i2c.c **** * Author             : www.vabolis.lt + kmm CHR(0x40) rmlabs.net
   4:Core/Src/USER/oled/ssd1306_oled_i2c.c **** * Version            : V1.2
   5:Core/Src/USER/oled/ssd1306_oled_i2c.c **** * Date               : 2020
   6:Core/Src/USER/oled/ssd1306_oled_i2c.c **** * Description        : OLED I2C display module from China
   7:Core/Src/USER/oled/ssd1306_oled_i2c.c **** ********************************************************************************
   8:Core/Src/USER/oled/ssd1306_oled_i2c.c **** * converterted STM32F MCU, compatible with STM32CubeMX, HAL, gcc
   9:Core/Src/USER/oled/ssd1306_oled_i2c.c **** ****************************************************************************** */
  10:Core/Src/USER/oled/ssd1306_oled_i2c.c **** #include <stdlib.h>
  11:Core/Src/USER/oled/ssd1306_oled_i2c.c **** #include <string.h>
  12:Core/Src/USER/oled/ssd1306_oled_i2c.c **** 
  13:Core/Src/USER/oled/ssd1306_oled_i2c.c **** 
  14:Core/Src/USER/oled/ssd1306_oled_i2c.c **** /* IC2 handlers from CubeMX */
  15:Core/Src/USER/oled/ssd1306_oled_i2c.c **** extern I2C_HandleTypeDef hi2c2;
  16:Core/Src/USER/oled/ssd1306_oled_i2c.c **** #define HI2C &hi2c2
  17:Core/Src/USER/oled/ssd1306_oled_i2c.c **** 
  18:Core/Src/USER/oled/ssd1306_oled_i2c.c **** /* some includes */
  19:Core/Src/USER/oled/ssd1306_oled_i2c.c **** #include "ssd1306_oled.h" // configuration number from datasheet
  20:Core/Src/USER/oled/ssd1306_oled_i2c.c **** #include "font_c64_lower.h" // Commodore 64 font
  21:Core/Src/USER/oled/ssd1306_oled_i2c.c **** 
  22:Core/Src/USER/oled/ssd1306_oled_i2c.c **** 
  23:Core/Src/USER/oled/ssd1306_oled_i2c.c **** /* Configure display: size, voltage, I2C address */
  24:Core/Src/USER/oled/ssd1306_oled_i2c.c **** #define SSD1306_ADR 0x78>>1
  25:Core/Src/USER/oled/ssd1306_oled_i2c.c **** #define SSD1306_WIDTH 128
  26:Core/Src/USER/oled/ssd1306_oled_i2c.c **** #define SSD1306_HEIGHT 32
  27:Core/Src/USER/oled/ssd1306_oled_i2c.c **** 
  28:Core/Src/USER/oled/ssd1306_oled_i2c.c **** 
  29:Core/Src/USER/oled/ssd1306_oled_i2c.c **** #define SSD1306_VCS SSD1306_SWITCHCAPVCC //all China made modules use internal Vcc
  30:Core/Src/USER/oled/ssd1306_oled_i2c.c **** 
  31:Core/Src/USER/oled/ssd1306_oled_i2c.c **** 
  32:Core/Src/USER/oled/ssd1306_oled_i2c.c ****   #if SSD1306_HEIGHT == 64
  33:Core/Src/USER/oled/ssd1306_oled_i2c.c ****     #define SSD_MAGIC 7
ARM GAS  C:\Users\User\AppData\Local\Temp\ccEEhKx4.s 			page 2


  34:Core/Src/USER/oled/ssd1306_oled_i2c.c ****   #endif
  35:Core/Src/USER/oled/ssd1306_oled_i2c.c ****   #if SSD1306_HEIGHT == 32
  36:Core/Src/USER/oled/ssd1306_oled_i2c.c ****     #define SSD_MAGIC 3 // Page end address
  37:Core/Src/USER/oled/ssd1306_oled_i2c.c ****   #endif
  38:Core/Src/USER/oled/ssd1306_oled_i2c.c ****   #if SSD1306_HEIGHT == 16
  39:Core/Src/USER/oled/ssd1306_oled_i2c.c ****     #define SSD_MAGIC 1 // Page end address
  40:Core/Src/USER/oled/ssd1306_oled_i2c.c ****   #endif
  41:Core/Src/USER/oled/ssd1306_oled_i2c.c **** 
  42:Core/Src/USER/oled/ssd1306_oled_i2c.c **** 
  43:Core/Src/USER/oled/ssd1306_oled_i2c.c **** 
  44:Core/Src/USER/oled/ssd1306_oled_i2c.c **** 
  45:Core/Src/USER/oled/ssd1306_oled_i2c.c **** 
  46:Core/Src/USER/oled/ssd1306_oled_i2c.c **** #if SSD1306_WIDTH == 128 && SSD1306_HEIGHT == 32
  47:Core/Src/USER/oled/ssd1306_oled_i2c.c ****     #define SSD_COMPINS 0x02
  48:Core/Src/USER/oled/ssd1306_oled_i2c.c **** 	#define SSD_CONTRAST 0x8F
  49:Core/Src/USER/oled/ssd1306_oled_i2c.c **** #elif SSD1306_WIDTH == 128 && SSD1306_HEIGHT == 64
  50:Core/Src/USER/oled/ssd1306_oled_i2c.c **** 	#define SSD_COMPINS 0x12
  51:Core/Src/USER/oled/ssd1306_oled_i2c.c **** 		#if SSD1306_VCS == SSD1306_EXTERNALVCC
  52:Core/Src/USER/oled/ssd1306_oled_i2c.c **** 			#define SSD_CONTRAST 0x9F
  53:Core/Src/USER/oled/ssd1306_oled_i2c.c **** 		#else
  54:Core/Src/USER/oled/ssd1306_oled_i2c.c **** 			#define SSD_CONTRAST 0xCF
  55:Core/Src/USER/oled/ssd1306_oled_i2c.c **** 		#endif
  56:Core/Src/USER/oled/ssd1306_oled_i2c.c **** #elif SSD1306_WIDTH == 96 && SSD1306_HEIGHT == 16
  57:Core/Src/USER/oled/ssd1306_oled_i2c.c **** 	#define SSD_COMPINS 0x02
  58:Core/Src/USER/oled/ssd1306_oled_i2c.c **** 		#if SSD1306_VCS == SSD1306_EXTERNALVCC
  59:Core/Src/USER/oled/ssd1306_oled_i2c.c **** 			#define SSD_CONTRAST 0x10
  60:Core/Src/USER/oled/ssd1306_oled_i2c.c **** 		#else
  61:Core/Src/USER/oled/ssd1306_oled_i2c.c **** 			#define SSD_CONTRAST 0xAF
  62:Core/Src/USER/oled/ssd1306_oled_i2c.c **** 		#endif
  63:Core/Src/USER/oled/ssd1306_oled_i2c.c **** #else
  64:Core/Src/USER/oled/ssd1306_oled_i2c.c **** 	#error "nezinomas ekrnas"
  65:Core/Src/USER/oled/ssd1306_oled_i2c.c **** #endif
  66:Core/Src/USER/oled/ssd1306_oled_i2c.c **** 
  67:Core/Src/USER/oled/ssd1306_oled_i2c.c **** 
  68:Core/Src/USER/oled/ssd1306_oled_i2c.c **** #if SSD1306_VCS == SSD1306_EXTERNALVCC
  69:Core/Src/USER/oled/ssd1306_oled_i2c.c **** 	#define CHRPUMP 0x10
  70:Core/Src/USER/oled/ssd1306_oled_i2c.c **** 	#define PRECHARGE 0x22
  71:Core/Src/USER/oled/ssd1306_oled_i2c.c **** #else
  72:Core/Src/USER/oled/ssd1306_oled_i2c.c **** 	#define CHRPUMP 0x14
  73:Core/Src/USER/oled/ssd1306_oled_i2c.c **** 	#define PRECHARGE 0xF1
  74:Core/Src/USER/oled/ssd1306_oled_i2c.c **** #endif
  75:Core/Src/USER/oled/ssd1306_oled_i2c.c **** 
  76:Core/Src/USER/oled/ssd1306_oled_i2c.c **** 
  77:Core/Src/USER/oled/ssd1306_oled_i2c.c **** 
  78:Core/Src/USER/oled/ssd1306_oled_i2c.c **** 
  79:Core/Src/USER/oled/ssd1306_oled_i2c.c **** 
  80:Core/Src/USER/oled/ssd1306_oled_i2c.c **** 
  81:Core/Src/USER/oled/ssd1306_oled_i2c.c **** /* some crazy stuff from kmm */
  82:Core/Src/USER/oled/ssd1306_oled_i2c.c **** #define SSD1306_swap(a, b)   (((a) ^= (b)), ((b) ^= (a)), ((a) ^= (b))) ///< No-temp-var swap opera
  83:Core/Src/USER/oled/ssd1306_oled_i2c.c **** 
  84:Core/Src/USER/oled/ssd1306_oled_i2c.c **** 
  85:Core/Src/USER/oled/ssd1306_oled_i2c.c **** /* ******** GLOBALS ****************** */
  86:Core/Src/USER/oled/ssd1306_oled_i2c.c **** unsigned char oled_line=0; //holds current text line, used from autoscroll
  87:Core/Src/USER/oled/ssd1306_oled_i2c.c **** unsigned char getRotation(void) { return 0;} //for comaptibility
  88:Core/Src/USER/oled/ssd1306_oled_i2c.c **** 
  89:Core/Src/USER/oled/ssd1306_oled_i2c.c **** /* ********************* I2C blokai = I2C modules ****************** */
  90:Core/Src/USER/oled/ssd1306_oled_i2c.c **** 
ARM GAS  C:\Users\User\AppData\Local\Temp\ccEEhKx4.s 			page 3


  91:Core/Src/USER/oled/ssd1306_oled_i2c.c **** /* send command via i2c to ssd1306. first byte is command/data flag. for I2C only */
  92:Core/Src/USER/oled/ssd1306_oled_i2c.c **** void SSD1306_command1(uint8_t c)
  93:Core/Src/USER/oled/ssd1306_oled_i2c.c **** {
  94:Core/Src/USER/oled/ssd1306_oled_i2c.c **** unsigned char a[2];
  95:Core/Src/USER/oled/ssd1306_oled_i2c.c **** 	a[0]=0; // DC=0, CO=0
  96:Core/Src/USER/oled/ssd1306_oled_i2c.c **** 	a[1]=c;
  97:Core/Src/USER/oled/ssd1306_oled_i2c.c **** 	HAL_I2C_Master_Transmit(HI2C, SSD1306_ADR<<1, a, 2,SSD_MAX_DELAY);
  98:Core/Src/USER/oled/ssd1306_oled_i2c.c **** }
  99:Core/Src/USER/oled/ssd1306_oled_i2c.c **** 
 100:Core/Src/USER/oled/ssd1306_oled_i2c.c **** /* transmit buffer to device using HAL. First byte in buffer is command/data flag */
 101:Core/Src/USER/oled/ssd1306_oled_i2c.c **** void SSD1306_sendbuffer(uint8_t *c, uint8_t n)
 102:Core/Src/USER/oled/ssd1306_oled_i2c.c **** {
 103:Core/Src/USER/oled/ssd1306_oled_i2c.c **** 	HAL_I2C_Master_Transmit(HI2C, SSD1306_ADR<<1, c, n,SSD_MAX_DELAY);
 104:Core/Src/USER/oled/ssd1306_oled_i2c.c **** }
 105:Core/Src/USER/oled/ssd1306_oled_i2c.c **** 
 106:Core/Src/USER/oled/ssd1306_oled_i2c.c **** /* for compatibility with kmm software. Write data or command to i2c device */
 107:Core/Src/USER/oled/ssd1306_oled_i2c.c **** void SSD1306_write(unsigned char dc, unsigned char data)
 108:Core/Src/USER/oled/ssd1306_oled_i2c.c **** {
 109:Core/Src/USER/oled/ssd1306_oled_i2c.c **** unsigned char a[2];
 110:Core/Src/USER/oled/ssd1306_oled_i2c.c **** /* copypaste from datasheet:
 111:Core/Src/USER/oled/ssd1306_oled_i2c.c **** A control byte mainly consists of Co and D/C# bits following by six “0” ‘s.
 112:Core/Src/USER/oled/ssd1306_oled_i2c.c **** a. If the Co bit is set as logic “0”, the transmission of the following information will contain
 113:Core/Src/USER/oled/ssd1306_oled_i2c.c **** data bytes only.
 114:Core/Src/USER/oled/ssd1306_oled_i2c.c **** b. The D/C# bit determines the next data byte is acted as a command or a data. If the D/C# bit is
 115:Core/Src/USER/oled/ssd1306_oled_i2c.c **** set to logic “0”, it defines the following data byte as a command. If the D/C# bit is set to
 116:Core/Src/USER/oled/ssd1306_oled_i2c.c **** logic “1”, it defines the following data byte as a data which will be stored at the GDDRAM.
 117:Core/Src/USER/oled/ssd1306_oled_i2c.c **** The GDDRAM column address pointer will be increased by one automatically after each
 118:Core/Src/USER/oled/ssd1306_oled_i2c.c **** data write.
 119:Core/Src/USER/oled/ssd1306_oled_i2c.c **** */
 120:Core/Src/USER/oled/ssd1306_oled_i2c.c **** 	if(dc) {a[0]=0b01000000;} else {a[0]=0;} // ar abu bitai 1?
 121:Core/Src/USER/oled/ssd1306_oled_i2c.c **** 	a[1]=data;
 122:Core/Src/USER/oled/ssd1306_oled_i2c.c **** 	HAL_I2C_Master_Transmit(HI2C, SSD1306_ADR<<1, a, 2,SSD_MAX_DELAY);
 123:Core/Src/USER/oled/ssd1306_oled_i2c.c **** }
 124:Core/Src/USER/oled/ssd1306_oled_i2c.c **** static char SSD1306_present(void)
 125:Core/Src/USER/oled/ssd1306_oled_i2c.c **** {
  26              		.loc 1 125 1 view -0
  27              		.cfi_startproc
  28              		@ args = 0, pretend = 0, frame = 0
  29              		@ frame_needed = 0, uses_anonymous_args = 0
  30 0000 08B5     		push	{r3, lr}
  31              	.LCFI0:
  32              		.cfi_def_cfa_offset 8
  33              		.cfi_offset 3, -8
  34              		.cfi_offset 14, -4
 126:Core/Src/USER/oled/ssd1306_oled_i2c.c **** 	HAL_StatusTypeDef status = HAL_I2C_IsDeviceReady (HI2C, SSD1306_ADR<<1, 1,SSD_MAX_DELAY);
  35              		.loc 1 126 2 view .LVU1
  36              		.loc 1 126 29 is_stmt 0 view .LVU2
  37 0002 C823     		movs	r3, #200
  38 0004 0122     		movs	r2, #1
  39 0006 7821     		movs	r1, #120
  40 0008 0348     		ldr	r0, .L5
  41 000a FFF7FEFF 		bl	HAL_I2C_IsDeviceReady
  42              	.LVL0:
 127:Core/Src/USER/oled/ssd1306_oled_i2c.c **** 	if(status==HAL_OK) {return 1;}else{return 0;} 
  43              		.loc 1 127 2 is_stmt 1 view .LVU3
  44              		.loc 1 127 4 is_stmt 0 view .LVU4
  45 000e 08B9     		cbnz	r0, .L3
ARM GAS  C:\Users\User\AppData\Local\Temp\ccEEhKx4.s 			page 4


  46              		.loc 1 127 29 view .LVU5
  47 0010 0120     		movs	r0, #1
  48              	.LVL1:
  49              	.L2:
 128:Core/Src/USER/oled/ssd1306_oled_i2c.c **** }
  50              		.loc 1 128 1 view .LVU6
  51 0012 08BD     		pop	{r3, pc}
  52              	.LVL2:
  53              	.L3:
 127:Core/Src/USER/oled/ssd1306_oled_i2c.c **** 	if(status==HAL_OK) {return 1;}else{return 0;} 
  54              		.loc 1 127 44 view .LVU7
  55 0014 0020     		movs	r0, #0
  56              	.LVL3:
 127:Core/Src/USER/oled/ssd1306_oled_i2c.c **** 	if(status==HAL_OK) {return 1;}else{return 0;} 
  57              		.loc 1 127 44 view .LVU8
  58 0016 FCE7     		b	.L2
  59              	.L6:
  60              		.align	2
  61              	.L5:
  62 0018 00000000 		.word	.LANCHOR0
  63              		.cfi_endproc
  64              	.LFE87:
  66              		.section	.text.MX_GPIO_Init,"ax",%progbits
  67              		.align	1
  68              		.syntax unified
  69              		.thumb
  70              		.thumb_func
  72              	MX_GPIO_Init:
  73              	.LFB133:
  74              		.file 2 "Core/Src/main.c"
   1:Core/Src/main.c **** /* USER CODE BEGIN Header */
   2:Core/Src/main.c **** /**
   3:Core/Src/main.c ****   ******************************************************************************
   4:Core/Src/main.c ****   * @file           : main.c
   5:Core/Src/main.c ****   * @brief          : RTC 9H
   6:Core/Src/main.c ****   ******************************************************************************
   7:Core/Src/main.c ****   * @attention
   8:Core/Src/main.c ****   *
   9:Core/Src/main.c ****   * Copyright (c) 2023 STMicroelectronics.
  10:Core/Src/main.c ****   * All rights reserved.
  11:Core/Src/main.c ****   *
  12:Core/Src/main.c ****   * This software is licensed under terms that can be found in the LICENSE file
  13:Core/Src/main.c ****   * in the root directory of this software component.
  14:Core/Src/main.c ****   * If no LICENSE file comes with this software, it is provided AS-IS.
  15:Core/Src/main.c ****   *
  16:Core/Src/main.c ****   ******************************************************************************
  17:Core/Src/main.c ****   */
  18:Core/Src/main.c **** /* USER CODE END Header */
  19:Core/Src/main.c **** /* Includes ------------------------------------------------------------------*/
  20:Core/Src/main.c **** #include "main.h"
  21:Core/Src/main.c **** #include "usb_device.h"
  22:Core/Src/main.c **** 
  23:Core/Src/main.c **** /* Private includes ----------------------------------------------------------*/
  24:Core/Src/main.c **** /* USER CODE BEGIN Includes */
  25:Core/Src/main.c **** #include "USER/user.c"
  26:Core/Src/main.c **** /* USER CODE END Includes */
  27:Core/Src/main.c **** 
ARM GAS  C:\Users\User\AppData\Local\Temp\ccEEhKx4.s 			page 5


  28:Core/Src/main.c **** /* Private typedef -----------------------------------------------------------*/
  29:Core/Src/main.c **** /* USER CODE BEGIN PTD */
  30:Core/Src/main.c **** 
  31:Core/Src/main.c **** /* USER CODE END PTD */
  32:Core/Src/main.c **** 
  33:Core/Src/main.c **** /* Private define ------------------------------------------------------------*/
  34:Core/Src/main.c **** /* USER CODE BEGIN PD */
  35:Core/Src/main.c **** 
  36:Core/Src/main.c **** /* USER CODE END PD */
  37:Core/Src/main.c **** 
  38:Core/Src/main.c **** /* Private macro -------------------------------------------------------------*/
  39:Core/Src/main.c **** /* USER CODE BEGIN PM */
  40:Core/Src/main.c **** 
  41:Core/Src/main.c **** /* USER CODE END PM */
  42:Core/Src/main.c **** 
  43:Core/Src/main.c **** /* Private variables ---------------------------------------------------------*/
  44:Core/Src/main.c **** I2C_HandleTypeDef hi2c2;
  45:Core/Src/main.c **** 
  46:Core/Src/main.c **** IWDG_HandleTypeDef hiwdg;
  47:Core/Src/main.c **** 
  48:Core/Src/main.c **** RTC_HandleTypeDef hrtc;
  49:Core/Src/main.c **** 
  50:Core/Src/main.c **** TIM_HandleTypeDef htim1;
  51:Core/Src/main.c **** TIM_HandleTypeDef htim2;
  52:Core/Src/main.c **** 
  53:Core/Src/main.c **** /* USER CODE BEGIN PV */
  54:Core/Src/main.c **** 
  55:Core/Src/main.c **** /* USER CODE END PV */
  56:Core/Src/main.c **** 
  57:Core/Src/main.c **** /* Private function prototypes -----------------------------------------------*/
  58:Core/Src/main.c **** void SystemClock_Config(void);
  59:Core/Src/main.c **** static void MX_GPIO_Init(void);
  60:Core/Src/main.c **** static void MX_RTC_Init(void);
  61:Core/Src/main.c **** static void MX_TIM1_Init(void);
  62:Core/Src/main.c **** static void MX_I2C2_Init(void);
  63:Core/Src/main.c **** static void MX_IWDG_Init(void);
  64:Core/Src/main.c **** static void MX_TIM2_Init(void);
  65:Core/Src/main.c **** /* USER CODE BEGIN PFP */
  66:Core/Src/main.c **** 
  67:Core/Src/main.c **** /* USER CODE END PFP */
  68:Core/Src/main.c **** 
  69:Core/Src/main.c **** /* Private user code ---------------------------------------------------------*/
  70:Core/Src/main.c **** /* USER CODE BEGIN 0 */
  71:Core/Src/main.c **** 
  72:Core/Src/main.c **** /* USER CODE END 0 */
  73:Core/Src/main.c **** 
  74:Core/Src/main.c **** /**
  75:Core/Src/main.c ****   * @brief  The application entry point.
  76:Core/Src/main.c ****   * @retval int
  77:Core/Src/main.c ****   */
  78:Core/Src/main.c **** int main(void)
  79:Core/Src/main.c **** {
  80:Core/Src/main.c ****   /* USER CODE BEGIN 1 */
  81:Core/Src/main.c **** 
  82:Core/Src/main.c ****   /* USER CODE END 1 */
  83:Core/Src/main.c **** 
  84:Core/Src/main.c ****   /* MCU Configuration--------------------------------------------------------*/
ARM GAS  C:\Users\User\AppData\Local\Temp\ccEEhKx4.s 			page 6


  85:Core/Src/main.c **** 
  86:Core/Src/main.c ****   /* Reset of all peripherals, Initializes the Flash interface and the Systick. */
  87:Core/Src/main.c ****   HAL_Init();
  88:Core/Src/main.c **** 
  89:Core/Src/main.c ****   /* USER CODE BEGIN Init */
  90:Core/Src/main.c **** 
  91:Core/Src/main.c ****   /* USER CODE END Init */
  92:Core/Src/main.c **** 
  93:Core/Src/main.c ****   /* Configure the system clock */
  94:Core/Src/main.c ****   SystemClock_Config();
  95:Core/Src/main.c **** 
  96:Core/Src/main.c ****   /* USER CODE BEGIN SysInit */
  97:Core/Src/main.c **** 
  98:Core/Src/main.c ****   /* USER CODE END SysInit */
  99:Core/Src/main.c **** 
 100:Core/Src/main.c ****   /* Initialize all configured peripherals */
 101:Core/Src/main.c ****   MX_GPIO_Init();
 102:Core/Src/main.c ****   MX_RTC_Init();
 103:Core/Src/main.c ****   MX_TIM1_Init();
 104:Core/Src/main.c ****   MX_USB_DEVICE_Init();
 105:Core/Src/main.c ****   MX_I2C2_Init();
 106:Core/Src/main.c ****   MX_IWDG_Init();
 107:Core/Src/main.c ****   MX_TIM2_Init();
 108:Core/Src/main.c ****   /* USER CODE BEGIN 2 */
 109:Core/Src/main.c **** user_init();
 110:Core/Src/main.c ****   /* USER CODE END 2 */
 111:Core/Src/main.c **** 
 112:Core/Src/main.c ****   /* Infinite loop */
 113:Core/Src/main.c ****   /* USER CODE BEGIN WHILE */
 114:Core/Src/main.c ****   while (1)
 115:Core/Src/main.c ****   {
 116:Core/Src/main.c ****     /* USER CODE END WHILE */
 117:Core/Src/main.c **** 
 118:Core/Src/main.c ****     /* USER CODE BEGIN 3 */
 119:Core/Src/main.c **** 	user_loop();
 120:Core/Src/main.c ****   }
 121:Core/Src/main.c ****   /* USER CODE END 3 */
 122:Core/Src/main.c **** }
 123:Core/Src/main.c **** 
 124:Core/Src/main.c **** /**
 125:Core/Src/main.c ****   * @brief System Clock Configuration
 126:Core/Src/main.c ****   * @retval None
 127:Core/Src/main.c ****   */
 128:Core/Src/main.c **** void SystemClock_Config(void)
 129:Core/Src/main.c **** {
 130:Core/Src/main.c ****   RCC_OscInitTypeDef RCC_OscInitStruct = {0};
 131:Core/Src/main.c ****   RCC_ClkInitTypeDef RCC_ClkInitStruct = {0};
 132:Core/Src/main.c ****   RCC_PeriphCLKInitTypeDef PeriphClkInit = {0};
 133:Core/Src/main.c **** 
 134:Core/Src/main.c ****   /** Initializes the RCC Oscillators according to the specified parameters
 135:Core/Src/main.c ****   * in the RCC_OscInitTypeDef structure.
 136:Core/Src/main.c ****   */
 137:Core/Src/main.c ****   RCC_OscInitStruct.OscillatorType = RCC_OSCILLATORTYPE_LSI|RCC_OSCILLATORTYPE_HSE
 138:Core/Src/main.c ****                               |RCC_OSCILLATORTYPE_LSE;
 139:Core/Src/main.c ****   RCC_OscInitStruct.HSEState = RCC_HSE_ON;
 140:Core/Src/main.c ****   RCC_OscInitStruct.HSEPredivValue = RCC_HSE_PREDIV_DIV1;
 141:Core/Src/main.c ****   RCC_OscInitStruct.LSEState = RCC_LSE_ON;
ARM GAS  C:\Users\User\AppData\Local\Temp\ccEEhKx4.s 			page 7


 142:Core/Src/main.c ****   RCC_OscInitStruct.HSIState = RCC_HSI_ON;
 143:Core/Src/main.c ****   RCC_OscInitStruct.LSIState = RCC_LSI_ON;
 144:Core/Src/main.c ****   RCC_OscInitStruct.PLL.PLLState = RCC_PLL_ON;
 145:Core/Src/main.c ****   RCC_OscInitStruct.PLL.PLLSource = RCC_PLLSOURCE_HSE;
 146:Core/Src/main.c ****   RCC_OscInitStruct.PLL.PLLMUL = RCC_PLL_MUL6;
 147:Core/Src/main.c ****   if (HAL_RCC_OscConfig(&RCC_OscInitStruct) != HAL_OK)
 148:Core/Src/main.c ****   {
 149:Core/Src/main.c ****     Error_Handler();
 150:Core/Src/main.c ****   }
 151:Core/Src/main.c **** 
 152:Core/Src/main.c ****   /** Initializes the CPU, AHB and APB buses clocks
 153:Core/Src/main.c ****   */
 154:Core/Src/main.c ****   RCC_ClkInitStruct.ClockType = RCC_CLOCKTYPE_HCLK|RCC_CLOCKTYPE_SYSCLK
 155:Core/Src/main.c ****                               |RCC_CLOCKTYPE_PCLK1|RCC_CLOCKTYPE_PCLK2;
 156:Core/Src/main.c ****   RCC_ClkInitStruct.SYSCLKSource = RCC_SYSCLKSOURCE_PLLCLK;
 157:Core/Src/main.c ****   RCC_ClkInitStruct.AHBCLKDivider = RCC_SYSCLK_DIV1;
 158:Core/Src/main.c ****   RCC_ClkInitStruct.APB1CLKDivider = RCC_HCLK_DIV2;
 159:Core/Src/main.c ****   RCC_ClkInitStruct.APB2CLKDivider = RCC_HCLK_DIV1;
 160:Core/Src/main.c **** 
 161:Core/Src/main.c ****   if (HAL_RCC_ClockConfig(&RCC_ClkInitStruct, FLASH_LATENCY_1) != HAL_OK)
 162:Core/Src/main.c ****   {
 163:Core/Src/main.c ****     Error_Handler();
 164:Core/Src/main.c ****   }
 165:Core/Src/main.c ****   PeriphClkInit.PeriphClockSelection = RCC_PERIPHCLK_RTC|RCC_PERIPHCLK_USB;
 166:Core/Src/main.c ****   PeriphClkInit.RTCClockSelection = RCC_RTCCLKSOURCE_LSE;
 167:Core/Src/main.c ****   PeriphClkInit.UsbClockSelection = RCC_USBCLKSOURCE_PLL;
 168:Core/Src/main.c ****   if (HAL_RCCEx_PeriphCLKConfig(&PeriphClkInit) != HAL_OK)
 169:Core/Src/main.c ****   {
 170:Core/Src/main.c ****     Error_Handler();
 171:Core/Src/main.c ****   }
 172:Core/Src/main.c **** }
 173:Core/Src/main.c **** 
 174:Core/Src/main.c **** /**
 175:Core/Src/main.c ****   * @brief I2C2 Initialization Function
 176:Core/Src/main.c ****   * @param None
 177:Core/Src/main.c ****   * @retval None
 178:Core/Src/main.c ****   */
 179:Core/Src/main.c **** static void MX_I2C2_Init(void)
 180:Core/Src/main.c **** {
 181:Core/Src/main.c **** 
 182:Core/Src/main.c ****   /* USER CODE BEGIN I2C2_Init 0 */
 183:Core/Src/main.c **** 
 184:Core/Src/main.c ****   /* USER CODE END I2C2_Init 0 */
 185:Core/Src/main.c **** 
 186:Core/Src/main.c ****   /* USER CODE BEGIN I2C2_Init 1 */
 187:Core/Src/main.c **** 
 188:Core/Src/main.c ****   /* USER CODE END I2C2_Init 1 */
 189:Core/Src/main.c ****   hi2c2.Instance = I2C2;
 190:Core/Src/main.c ****   hi2c2.Init.ClockSpeed = 400000;
 191:Core/Src/main.c ****   hi2c2.Init.DutyCycle = I2C_DUTYCYCLE_2;
 192:Core/Src/main.c ****   hi2c2.Init.OwnAddress1 = 0;
 193:Core/Src/main.c ****   hi2c2.Init.AddressingMode = I2C_ADDRESSINGMODE_7BIT;
 194:Core/Src/main.c ****   hi2c2.Init.DualAddressMode = I2C_DUALADDRESS_DISABLE;
 195:Core/Src/main.c ****   hi2c2.Init.OwnAddress2 = 0;
 196:Core/Src/main.c ****   hi2c2.Init.GeneralCallMode = I2C_GENERALCALL_DISABLE;
 197:Core/Src/main.c ****   hi2c2.Init.NoStretchMode = I2C_NOSTRETCH_DISABLE;
 198:Core/Src/main.c ****   if (HAL_I2C_Init(&hi2c2) != HAL_OK)
ARM GAS  C:\Users\User\AppData\Local\Temp\ccEEhKx4.s 			page 8


 199:Core/Src/main.c ****   {
 200:Core/Src/main.c ****     Error_Handler();
 201:Core/Src/main.c ****   }
 202:Core/Src/main.c ****   /* USER CODE BEGIN I2C2_Init 2 */
 203:Core/Src/main.c **** 
 204:Core/Src/main.c ****   /* USER CODE END I2C2_Init 2 */
 205:Core/Src/main.c **** 
 206:Core/Src/main.c **** }
 207:Core/Src/main.c **** 
 208:Core/Src/main.c **** /**
 209:Core/Src/main.c ****   * @brief IWDG Initialization Function
 210:Core/Src/main.c ****   * @param None
 211:Core/Src/main.c ****   * @retval None
 212:Core/Src/main.c ****   */
 213:Core/Src/main.c **** static void MX_IWDG_Init(void)
 214:Core/Src/main.c **** {
 215:Core/Src/main.c **** 
 216:Core/Src/main.c ****   /* USER CODE BEGIN IWDG_Init 0 */
 217:Core/Src/main.c **** 
 218:Core/Src/main.c ****   /* USER CODE END IWDG_Init 0 */
 219:Core/Src/main.c **** 
 220:Core/Src/main.c ****   /* USER CODE BEGIN IWDG_Init 1 */
 221:Core/Src/main.c **** 
 222:Core/Src/main.c ****   /* USER CODE END IWDG_Init 1 */
 223:Core/Src/main.c ****   hiwdg.Instance = IWDG;
 224:Core/Src/main.c ****   hiwdg.Init.Prescaler = IWDG_PRESCALER_32;
 225:Core/Src/main.c ****   hiwdg.Init.Reload = 3749;
 226:Core/Src/main.c ****   if (HAL_IWDG_Init(&hiwdg) != HAL_OK)
 227:Core/Src/main.c ****   {
 228:Core/Src/main.c ****     Error_Handler();
 229:Core/Src/main.c ****   }
 230:Core/Src/main.c ****   /* USER CODE BEGIN IWDG_Init 2 */
 231:Core/Src/main.c **** 
 232:Core/Src/main.c ****   /* USER CODE END IWDG_Init 2 */
 233:Core/Src/main.c **** 
 234:Core/Src/main.c **** }
 235:Core/Src/main.c **** 
 236:Core/Src/main.c **** /**
 237:Core/Src/main.c ****   * @brief RTC Initialization Function
 238:Core/Src/main.c ****   * @param None
 239:Core/Src/main.c ****   * @retval None
 240:Core/Src/main.c ****   */
 241:Core/Src/main.c **** static void MX_RTC_Init(void)
 242:Core/Src/main.c **** {
 243:Core/Src/main.c **** 
 244:Core/Src/main.c ****   /* USER CODE BEGIN RTC_Init 0 */
 245:Core/Src/main.c **** 
 246:Core/Src/main.c ****   /* USER CODE END RTC_Init 0 */
 247:Core/Src/main.c **** 
 248:Core/Src/main.c ****   RTC_TimeTypeDef sTime = {0};
 249:Core/Src/main.c ****   RTC_DateTypeDef DateToUpdate = {0};
 250:Core/Src/main.c **** 
 251:Core/Src/main.c ****   /* USER CODE BEGIN RTC_Init 1 */
 252:Core/Src/main.c ****   hrtc.Instance = RTC;
 253:Core/Src/main.c ****   hrtc.Init.AsynchPrediv = RTC_AUTO_1_SECOND;
 254:Core/Src/main.c ****   hrtc.Init.OutPut = RTC_OUTPUTSOURCE_ALARM;
 255:Core/Src/main.c ****   if ((RCC->BDCR & RCC_BDCR_RTCEN) == 0) {
ARM GAS  C:\Users\User\AppData\Local\Temp\ccEEhKx4.s 			page 9


 256:Core/Src/main.c ****   /* USER CODE END RTC_Init 1 */
 257:Core/Src/main.c **** 
 258:Core/Src/main.c ****   /** Initialize RTC Only
 259:Core/Src/main.c ****   */
 260:Core/Src/main.c ****   hrtc.Instance = RTC;
 261:Core/Src/main.c ****   hrtc.Init.AsynchPrediv = RTC_AUTO_1_SECOND;
 262:Core/Src/main.c ****   hrtc.Init.OutPut = RTC_OUTPUTSOURCE_NONE;
 263:Core/Src/main.c ****   if (HAL_RTC_Init(&hrtc) != HAL_OK)
 264:Core/Src/main.c ****   {
 265:Core/Src/main.c ****     Error_Handler();
 266:Core/Src/main.c ****   }
 267:Core/Src/main.c **** 
 268:Core/Src/main.c ****   /* USER CODE BEGIN Check_RTC_BKUP */
 269:Core/Src/main.c ****   } else
 270:Core/Src/main.c ****     {
 271:Core/Src/main.c **** 	  HAL_NVIC_SetPriority(RTC_IRQn,15,0);
 272:Core/Src/main.c **** 	  HAL_NVIC_EnableIRQ(RTC_IRQn);
 273:Core/Src/main.c **** 	  HAL_PWR_EnableBkUpAccess(); //del backup ijungimo?!
 274:Core/Src/main.c **** 	  __HAL_RCC_BKP_CLK_ENABLE(); //del backup ijungimo?!
 275:Core/Src/main.c **** 	}
 276:Core/Src/main.c **** 	if(HAL_RTCEx_BKUPRead(&hrtc,RTC_BKP_DR1)!= 0x5051)
 277:Core/Src/main.c **** 	{
 278:Core/Src/main.c ****   /* USER CODE END Check_RTC_BKUP */
 279:Core/Src/main.c **** 
 280:Core/Src/main.c ****   /** Initialize RTC and set the Time and Date
 281:Core/Src/main.c ****   */
 282:Core/Src/main.c ****   sTime.Hours = 12;
 283:Core/Src/main.c ****   sTime.Minutes = 0;
 284:Core/Src/main.c ****   sTime.Seconds = 0;
 285:Core/Src/main.c **** 
 286:Core/Src/main.c ****   if (HAL_RTC_SetTime(&hrtc, &sTime, RTC_FORMAT_BIN) != HAL_OK)
 287:Core/Src/main.c ****   {
 288:Core/Src/main.c ****     Error_Handler();
 289:Core/Src/main.c ****   }
 290:Core/Src/main.c ****   DateToUpdate.WeekDay = RTC_WEEKDAY_MONDAY;
 291:Core/Src/main.c ****   DateToUpdate.Month = RTC_MONTH_JANUARY;
 292:Core/Src/main.c ****   DateToUpdate.Date = 1;
 293:Core/Src/main.c ****   DateToUpdate.Year = 23;
 294:Core/Src/main.c **** 
 295:Core/Src/main.c ****   if (HAL_RTC_SetDate(&hrtc, &DateToUpdate, RTC_FORMAT_BIN) != HAL_OK)
 296:Core/Src/main.c ****   {
 297:Core/Src/main.c ****     Error_Handler();
 298:Core/Src/main.c ****   }
 299:Core/Src/main.c ****   /* USER CODE BEGIN RTC_Init 2 */
 300:Core/Src/main.c **** 	} // Kitame user code virsuje yra IF komanda. Cia ji uzsidaro.
 301:Core/Src/main.c ****   // LAIKAS BUVO ISSAUGOTAS, NES USER REGISTRAS TURI MAGIC skaiciu 0x5051
 302:Core/Src/main.c ****   
 303:Core/Src/main.c ****   
 304:Core/Src/main.c **** // LAIKRODZIO TIKRINIMAS  
 305:Core/Src/main.c ****   
 306:Core/Src/main.c **** /* read RTC for time */
 307:Core/Src/main.c **** //	HAL_RTC_GetTime(&hrtc, &currTime, RTC_FORMAT_BIN);
 308:Core/Src/main.c **** /* read time seconds for epoch */
 309:Core/Src/main.c **** // uint32_t nowsecons=currTime.Hours*3600+currTime.Minutes*60+currTime.Seconds+(dienos.Date-1)*8640
 310:Core/Src/main.c **** 
 311:Core/Src/main.c **** //KALENDORIAUS TIKRINIMAS
 312:Core/Src/main.c **** 
ARM GAS  C:\Users\User\AppData\Local\Temp\ccEEhKx4.s 			page 10


 313:Core/Src/main.c **** 	//RTC kalendorius FAIL! Pas F103 jo ir nera. Cold boot su gyvu RTC
 314:Core/Src/main.c **** //	RTC_DateTypeDef dienos= {0};
 315:Core/Src/main.c **** //	HAL_RTC_GetDate(&hrtc, &dienos, RTC_FORMAT_BIN);
 316:Core/Src/main.c **** //	if(dienos.Year < 20) {rtc_check_screwd_calendar();}
 317:Core/Src/main.c **** 	
 318:Core/Src/main.c **** //HAL_RTC_GetTime(&hrtc, &currTime, RTC_FORMAT_BIN);
 319:Core/Src/main.c **** 
 320:Core/Src/main.c **** //Cia irasom MAGIC skaiciu. Jis po pilno reseto ir RTC mirties turi neislikti.
 321:Core/Src/main.c **** 	HAL_RTCEx_BKUPWrite(&hrtc, RTC_BKP_DR1, 0x5051);//Write data to the specified backing area registe
 322:Core/Src/main.c **** 
 323:Core/Src/main.c **** //HAL_RTCEx_SetSmoothCalib(&hrtc,0,0,10);
 324:Core/Src/main.c ****   /* USER CODE END RTC_Init 2 */
 325:Core/Src/main.c **** 
 326:Core/Src/main.c **** }
 327:Core/Src/main.c **** 
 328:Core/Src/main.c **** /**
 329:Core/Src/main.c ****   * @brief TIM1 Initialization Function
 330:Core/Src/main.c ****   * @param None
 331:Core/Src/main.c ****   * @retval None
 332:Core/Src/main.c ****   */
 333:Core/Src/main.c **** static void MX_TIM1_Init(void)
 334:Core/Src/main.c **** {
 335:Core/Src/main.c **** 
 336:Core/Src/main.c ****   /* USER CODE BEGIN TIM1_Init 0 */
 337:Core/Src/main.c **** 
 338:Core/Src/main.c ****   /* USER CODE END TIM1_Init 0 */
 339:Core/Src/main.c **** 
 340:Core/Src/main.c ****   TIM_ClockConfigTypeDef sClockSourceConfig = {0};
 341:Core/Src/main.c ****   TIM_MasterConfigTypeDef sMasterConfig = {0};
 342:Core/Src/main.c ****   TIM_OC_InitTypeDef sConfigOC = {0};
 343:Core/Src/main.c ****   TIM_BreakDeadTimeConfigTypeDef sBreakDeadTimeConfig = {0};
 344:Core/Src/main.c **** 
 345:Core/Src/main.c ****   /* USER CODE BEGIN TIM1_Init 1 */
 346:Core/Src/main.c **** 
 347:Core/Src/main.c ****   /* USER CODE END TIM1_Init 1 */
 348:Core/Src/main.c ****   htim1.Instance = TIM1;
 349:Core/Src/main.c ****   htim1.Init.Prescaler = 0;
 350:Core/Src/main.c ****   htim1.Init.CounterMode = TIM_COUNTERMODE_UP;
 351:Core/Src/main.c ****   htim1.Init.Period = 65535;
 352:Core/Src/main.c ****   htim1.Init.ClockDivision = TIM_CLOCKDIVISION_DIV1;
 353:Core/Src/main.c ****   htim1.Init.RepetitionCounter = 0;
 354:Core/Src/main.c ****   htim1.Init.AutoReloadPreload = TIM_AUTORELOAD_PRELOAD_ENABLE;
 355:Core/Src/main.c ****   if (HAL_TIM_Base_Init(&htim1) != HAL_OK)
 356:Core/Src/main.c ****   {
 357:Core/Src/main.c ****     Error_Handler();
 358:Core/Src/main.c ****   }
 359:Core/Src/main.c ****   sClockSourceConfig.ClockSource = TIM_CLOCKSOURCE_INTERNAL;
 360:Core/Src/main.c ****   if (HAL_TIM_ConfigClockSource(&htim1, &sClockSourceConfig) != HAL_OK)
 361:Core/Src/main.c ****   {
 362:Core/Src/main.c ****     Error_Handler();
 363:Core/Src/main.c ****   }
 364:Core/Src/main.c ****   if (HAL_TIM_PWM_Init(&htim1) != HAL_OK)
 365:Core/Src/main.c ****   {
 366:Core/Src/main.c ****     Error_Handler();
 367:Core/Src/main.c ****   }
 368:Core/Src/main.c ****   sMasterConfig.MasterOutputTrigger = TIM_TRGO_RESET;
 369:Core/Src/main.c ****   sMasterConfig.MasterSlaveMode = TIM_MASTERSLAVEMODE_DISABLE;
ARM GAS  C:\Users\User\AppData\Local\Temp\ccEEhKx4.s 			page 11


 370:Core/Src/main.c ****   if (HAL_TIMEx_MasterConfigSynchronization(&htim1, &sMasterConfig) != HAL_OK)
 371:Core/Src/main.c ****   {
 372:Core/Src/main.c ****     Error_Handler();
 373:Core/Src/main.c ****   }
 374:Core/Src/main.c ****   sConfigOC.OCMode = TIM_OCMODE_PWM1;
 375:Core/Src/main.c ****   sConfigOC.Pulse = 15000;
 376:Core/Src/main.c ****   sConfigOC.OCPolarity = TIM_OCPOLARITY_HIGH;
 377:Core/Src/main.c ****   sConfigOC.OCNPolarity = TIM_OCNPOLARITY_HIGH;
 378:Core/Src/main.c ****   sConfigOC.OCFastMode = TIM_OCFAST_DISABLE;
 379:Core/Src/main.c ****   sConfigOC.OCIdleState = TIM_OCIDLESTATE_RESET;
 380:Core/Src/main.c ****   sConfigOC.OCNIdleState = TIM_OCNIDLESTATE_RESET;
 381:Core/Src/main.c ****   if (HAL_TIM_PWM_ConfigChannel(&htim1, &sConfigOC, TIM_CHANNEL_1) != HAL_OK)
 382:Core/Src/main.c ****   {
 383:Core/Src/main.c ****     Error_Handler();
 384:Core/Src/main.c ****   }
 385:Core/Src/main.c ****   sBreakDeadTimeConfig.OffStateRunMode = TIM_OSSR_DISABLE;
 386:Core/Src/main.c ****   sBreakDeadTimeConfig.OffStateIDLEMode = TIM_OSSI_DISABLE;
 387:Core/Src/main.c ****   sBreakDeadTimeConfig.LockLevel = TIM_LOCKLEVEL_OFF;
 388:Core/Src/main.c ****   sBreakDeadTimeConfig.DeadTime = 0;
 389:Core/Src/main.c ****   sBreakDeadTimeConfig.BreakState = TIM_BREAK_DISABLE;
 390:Core/Src/main.c ****   sBreakDeadTimeConfig.BreakPolarity = TIM_BREAKPOLARITY_HIGH;
 391:Core/Src/main.c ****   sBreakDeadTimeConfig.AutomaticOutput = TIM_AUTOMATICOUTPUT_DISABLE;
 392:Core/Src/main.c ****   if (HAL_TIMEx_ConfigBreakDeadTime(&htim1, &sBreakDeadTimeConfig) != HAL_OK)
 393:Core/Src/main.c ****   {
 394:Core/Src/main.c ****     Error_Handler();
 395:Core/Src/main.c ****   }
 396:Core/Src/main.c ****   /* USER CODE BEGIN TIM1_Init 2 */
 397:Core/Src/main.c **** 
 398:Core/Src/main.c ****   /* USER CODE END TIM1_Init 2 */
 399:Core/Src/main.c ****   HAL_TIM_MspPostInit(&htim1);
 400:Core/Src/main.c **** 
 401:Core/Src/main.c **** }
 402:Core/Src/main.c **** 
 403:Core/Src/main.c **** /**
 404:Core/Src/main.c ****   * @brief TIM2 Initialization Function
 405:Core/Src/main.c ****   * @param None
 406:Core/Src/main.c ****   * @retval None
 407:Core/Src/main.c ****   */
 408:Core/Src/main.c **** static void MX_TIM2_Init(void)
 409:Core/Src/main.c **** {
 410:Core/Src/main.c **** 
 411:Core/Src/main.c ****   /* USER CODE BEGIN TIM2_Init 0 */
 412:Core/Src/main.c **** 
 413:Core/Src/main.c ****   /* USER CODE END TIM2_Init 0 */
 414:Core/Src/main.c **** 
 415:Core/Src/main.c ****   TIM_ClockConfigTypeDef sClockSourceConfig = {0};
 416:Core/Src/main.c ****   TIM_MasterConfigTypeDef sMasterConfig = {0};
 417:Core/Src/main.c ****   TIM_OC_InitTypeDef sConfigOC = {0};
 418:Core/Src/main.c **** 
 419:Core/Src/main.c ****   /* USER CODE BEGIN TIM2_Init 1 */
 420:Core/Src/main.c **** 
 421:Core/Src/main.c ****   /* USER CODE END TIM2_Init 1 */
 422:Core/Src/main.c ****   htim2.Instance = TIM2;
 423:Core/Src/main.c ****   htim2.Init.Prescaler = 200;
 424:Core/Src/main.c ****   htim2.Init.CounterMode = TIM_COUNTERMODE_UP;
 425:Core/Src/main.c ****   htim2.Init.Period = 29800;
 426:Core/Src/main.c ****   htim2.Init.ClockDivision = TIM_CLOCKDIVISION_DIV4;
ARM GAS  C:\Users\User\AppData\Local\Temp\ccEEhKx4.s 			page 12


 427:Core/Src/main.c ****   htim2.Init.AutoReloadPreload = TIM_AUTORELOAD_PRELOAD_ENABLE;
 428:Core/Src/main.c ****   if (HAL_TIM_Base_Init(&htim2) != HAL_OK)
 429:Core/Src/main.c ****   {
 430:Core/Src/main.c ****     Error_Handler();
 431:Core/Src/main.c ****   }
 432:Core/Src/main.c ****   sClockSourceConfig.ClockSource = TIM_CLOCKSOURCE_INTERNAL;
 433:Core/Src/main.c ****   if (HAL_TIM_ConfigClockSource(&htim2, &sClockSourceConfig) != HAL_OK)
 434:Core/Src/main.c ****   {
 435:Core/Src/main.c ****     Error_Handler();
 436:Core/Src/main.c ****   }
 437:Core/Src/main.c ****   if (HAL_TIM_OC_Init(&htim2) != HAL_OK)
 438:Core/Src/main.c ****   {
 439:Core/Src/main.c ****     Error_Handler();
 440:Core/Src/main.c ****   }
 441:Core/Src/main.c ****   sMasterConfig.MasterOutputTrigger = TIM_TRGO_RESET;
 442:Core/Src/main.c ****   sMasterConfig.MasterSlaveMode = TIM_MASTERSLAVEMODE_DISABLE;
 443:Core/Src/main.c ****   if (HAL_TIMEx_MasterConfigSynchronization(&htim2, &sMasterConfig) != HAL_OK)
 444:Core/Src/main.c ****   {
 445:Core/Src/main.c ****     Error_Handler();
 446:Core/Src/main.c ****   }
 447:Core/Src/main.c ****   sConfigOC.OCMode = TIM_OCMODE_TIMING;
 448:Core/Src/main.c ****   sConfigOC.Pulse = 0;
 449:Core/Src/main.c ****   sConfigOC.OCPolarity = TIM_OCPOLARITY_HIGH;
 450:Core/Src/main.c ****   sConfigOC.OCFastMode = TIM_OCFAST_DISABLE;
 451:Core/Src/main.c ****   if (HAL_TIM_OC_ConfigChannel(&htim2, &sConfigOC, TIM_CHANNEL_1) != HAL_OK)
 452:Core/Src/main.c ****   {
 453:Core/Src/main.c ****     Error_Handler();
 454:Core/Src/main.c ****   }
 455:Core/Src/main.c ****   /* USER CODE BEGIN TIM2_Init 2 */
 456:Core/Src/main.c **** 
 457:Core/Src/main.c ****   /* USER CODE END TIM2_Init 2 */
 458:Core/Src/main.c **** 
 459:Core/Src/main.c **** }
 460:Core/Src/main.c **** 
 461:Core/Src/main.c **** /**
 462:Core/Src/main.c ****   * @brief GPIO Initialization Function
 463:Core/Src/main.c ****   * @param None
 464:Core/Src/main.c ****   * @retval None
 465:Core/Src/main.c ****   */
 466:Core/Src/main.c **** static void MX_GPIO_Init(void)
 467:Core/Src/main.c **** {
  75              		.loc 2 467 1 is_stmt 1 view -0
  76              		.cfi_startproc
  77              		@ args = 0, pretend = 0, frame = 32
  78              		@ frame_needed = 0, uses_anonymous_args = 0
  79 0000 70B5     		push	{r4, r5, r6, lr}
  80              	.LCFI1:
  81              		.cfi_def_cfa_offset 16
  82              		.cfi_offset 4, -16
  83              		.cfi_offset 5, -12
  84              		.cfi_offset 6, -8
  85              		.cfi_offset 14, -4
  86 0002 88B0     		sub	sp, sp, #32
  87              	.LCFI2:
  88              		.cfi_def_cfa_offset 48
 468:Core/Src/main.c ****   GPIO_InitTypeDef GPIO_InitStruct = {0};
  89              		.loc 2 468 3 view .LVU10
ARM GAS  C:\Users\User\AppData\Local\Temp\ccEEhKx4.s 			page 13


  90              		.loc 2 468 20 is_stmt 0 view .LVU11
  91 0004 0024     		movs	r4, #0
  92 0006 0494     		str	r4, [sp, #16]
  93 0008 0594     		str	r4, [sp, #20]
  94 000a 0694     		str	r4, [sp, #24]
  95 000c 0794     		str	r4, [sp, #28]
 469:Core/Src/main.c **** /* USER CODE BEGIN MX_GPIO_Init_1 */
 470:Core/Src/main.c **** /* USER CODE END MX_GPIO_Init_1 */
 471:Core/Src/main.c **** 
 472:Core/Src/main.c ****   /* GPIO Ports Clock Enable */
 473:Core/Src/main.c ****   __HAL_RCC_GPIOC_CLK_ENABLE();
  96              		.loc 2 473 3 is_stmt 1 view .LVU12
  97              	.LBB24:
  98              		.loc 2 473 3 view .LVU13
  99              		.loc 2 473 3 view .LVU14
 100 000e 204B     		ldr	r3, .L9
 101 0010 9A69     		ldr	r2, [r3, #24]
 102 0012 42F01002 		orr	r2, r2, #16
 103 0016 9A61     		str	r2, [r3, #24]
 104              		.loc 2 473 3 view .LVU15
 105 0018 9A69     		ldr	r2, [r3, #24]
 106 001a 02F01002 		and	r2, r2, #16
 107 001e 0092     		str	r2, [sp]
 108              		.loc 2 473 3 view .LVU16
 109 0020 009A     		ldr	r2, [sp]
 110              	.LBE24:
 111              		.loc 2 473 3 view .LVU17
 474:Core/Src/main.c ****   __HAL_RCC_GPIOD_CLK_ENABLE();
 112              		.loc 2 474 3 view .LVU18
 113              	.LBB25:
 114              		.loc 2 474 3 view .LVU19
 115              		.loc 2 474 3 view .LVU20
 116 0022 9A69     		ldr	r2, [r3, #24]
 117 0024 42F02002 		orr	r2, r2, #32
 118 0028 9A61     		str	r2, [r3, #24]
 119              		.loc 2 474 3 view .LVU21
 120 002a 9A69     		ldr	r2, [r3, #24]
 121 002c 02F02002 		and	r2, r2, #32
 122 0030 0192     		str	r2, [sp, #4]
 123              		.loc 2 474 3 view .LVU22
 124 0032 019A     		ldr	r2, [sp, #4]
 125              	.LBE25:
 126              		.loc 2 474 3 view .LVU23
 475:Core/Src/main.c ****   __HAL_RCC_GPIOA_CLK_ENABLE();
 127              		.loc 2 475 3 view .LVU24
 128              	.LBB26:
 129              		.loc 2 475 3 view .LVU25
 130              		.loc 2 475 3 view .LVU26
 131 0034 9A69     		ldr	r2, [r3, #24]
 132 0036 42F00402 		orr	r2, r2, #4
 133 003a 9A61     		str	r2, [r3, #24]
 134              		.loc 2 475 3 view .LVU27
 135 003c 9A69     		ldr	r2, [r3, #24]
 136 003e 02F00402 		and	r2, r2, #4
 137 0042 0292     		str	r2, [sp, #8]
 138              		.loc 2 475 3 view .LVU28
 139 0044 029A     		ldr	r2, [sp, #8]
ARM GAS  C:\Users\User\AppData\Local\Temp\ccEEhKx4.s 			page 14


 140              	.LBE26:
 141              		.loc 2 475 3 view .LVU29
 476:Core/Src/main.c ****   __HAL_RCC_GPIOB_CLK_ENABLE();
 142              		.loc 2 476 3 view .LVU30
 143              	.LBB27:
 144              		.loc 2 476 3 view .LVU31
 145              		.loc 2 476 3 view .LVU32
 146 0046 9A69     		ldr	r2, [r3, #24]
 147 0048 42F00802 		orr	r2, r2, #8
 148 004c 9A61     		str	r2, [r3, #24]
 149              		.loc 2 476 3 view .LVU33
 150 004e 9B69     		ldr	r3, [r3, #24]
 151 0050 03F00803 		and	r3, r3, #8
 152 0054 0393     		str	r3, [sp, #12]
 153              		.loc 2 476 3 view .LVU34
 154 0056 039B     		ldr	r3, [sp, #12]
 155              	.LBE27:
 156              		.loc 2 476 3 view .LVU35
 477:Core/Src/main.c **** 
 478:Core/Src/main.c ****   /*Configure GPIO pin Output Level */
 479:Core/Src/main.c ****   HAL_GPIO_WritePin(LED_GPIO_Port, LED_Pin, GPIO_PIN_RESET);
 157              		.loc 2 479 3 view .LVU36
 158 0058 0E4E     		ldr	r6, .L9+4
 159 005a 2246     		mov	r2, r4
 160 005c 0121     		movs	r1, #1
 161 005e 3046     		mov	r0, r6
 162 0060 FFF7FEFF 		bl	HAL_GPIO_WritePin
 163              	.LVL4:
 480:Core/Src/main.c **** 
 481:Core/Src/main.c ****   /*Configure GPIO pin : LED_Pin */
 482:Core/Src/main.c ****   GPIO_InitStruct.Pin = LED_Pin;
 164              		.loc 2 482 3 view .LVU37
 165              		.loc 2 482 23 is_stmt 0 view .LVU38
 166 0064 0125     		movs	r5, #1
 167 0066 0495     		str	r5, [sp, #16]
 483:Core/Src/main.c ****   GPIO_InitStruct.Mode = GPIO_MODE_OUTPUT_PP;
 168              		.loc 2 483 3 is_stmt 1 view .LVU39
 169              		.loc 2 483 24 is_stmt 0 view .LVU40
 170 0068 0595     		str	r5, [sp, #20]
 484:Core/Src/main.c ****   GPIO_InitStruct.Pull = GPIO_NOPULL;
 171              		.loc 2 484 3 is_stmt 1 view .LVU41
 172              		.loc 2 484 24 is_stmt 0 view .LVU42
 173 006a 0694     		str	r4, [sp, #24]
 485:Core/Src/main.c ****   GPIO_InitStruct.Speed = GPIO_SPEED_FREQ_LOW;
 174              		.loc 2 485 3 is_stmt 1 view .LVU43
 175              		.loc 2 485 25 is_stmt 0 view .LVU44
 176 006c 0223     		movs	r3, #2
 177 006e 0793     		str	r3, [sp, #28]
 486:Core/Src/main.c ****   HAL_GPIO_Init(LED_GPIO_Port, &GPIO_InitStruct);
 178              		.loc 2 486 3 is_stmt 1 view .LVU45
 179 0070 04A9     		add	r1, sp, #16
 180 0072 3046     		mov	r0, r6
 181 0074 FFF7FEFF 		bl	HAL_GPIO_Init
 182              	.LVL5:
 487:Core/Src/main.c **** 
 488:Core/Src/main.c ****   /*Configure GPIO pins : BTN1_Pin BTN2_Pin BTN3_Pin */
 489:Core/Src/main.c ****   GPIO_InitStruct.Pin = BTN1_Pin|BTN2_Pin|BTN3_Pin;
ARM GAS  C:\Users\User\AppData\Local\Temp\ccEEhKx4.s 			page 15


 183              		.loc 2 489 3 view .LVU46
 184              		.loc 2 489 23 is_stmt 0 view .LVU47
 185 0078 4FF46043 		mov	r3, #57344
 186 007c 0493     		str	r3, [sp, #16]
 490:Core/Src/main.c ****   GPIO_InitStruct.Mode = GPIO_MODE_INPUT;
 187              		.loc 2 490 3 is_stmt 1 view .LVU48
 188              		.loc 2 490 24 is_stmt 0 view .LVU49
 189 007e 0594     		str	r4, [sp, #20]
 491:Core/Src/main.c ****   GPIO_InitStruct.Pull = GPIO_PULLUP;
 190              		.loc 2 491 3 is_stmt 1 view .LVU50
 191              		.loc 2 491 24 is_stmt 0 view .LVU51
 192 0080 0695     		str	r5, [sp, #24]
 492:Core/Src/main.c ****   HAL_GPIO_Init(GPIOB, &GPIO_InitStruct);
 193              		.loc 2 492 3 is_stmt 1 view .LVU52
 194 0082 04A9     		add	r1, sp, #16
 195 0084 0448     		ldr	r0, .L9+8
 196 0086 FFF7FEFF 		bl	HAL_GPIO_Init
 197              	.LVL6:
 493:Core/Src/main.c **** 
 494:Core/Src/main.c **** /* USER CODE BEGIN MX_GPIO_Init_2 */
 495:Core/Src/main.c **** /* USER CODE END MX_GPIO_Init_2 */
 496:Core/Src/main.c **** }
 198              		.loc 2 496 1 is_stmt 0 view .LVU53
 199 008a 08B0     		add	sp, sp, #32
 200              	.LCFI3:
 201              		.cfi_def_cfa_offset 16
 202              		@ sp needed
 203 008c 70BD     		pop	{r4, r5, r6, pc}
 204              	.L10:
 205 008e 00BF     		.align	2
 206              	.L9:
 207 0090 00100240 		.word	1073876992
 208 0094 00080140 		.word	1073809408
 209 0098 000C0140 		.word	1073810432
 210              		.cfi_endproc
 211              	.LFE133:
 213              		.section	.text.rtc_clean,"ax",%progbits
 214              		.align	1
 215              		.global	rtc_clean
 216              		.syntax unified
 217              		.thumb
 218              		.thumb_func
 220              	rtc_clean:
 221              	.LFB68:
 222              		.file 3 "Core/Src/USER/rtc.c"
   1:Core/Src/USER/rtc.c **** /* ********************************************* */
   2:Core/Src/USER/rtc.c **** /* (c)2022 by www.vabolis.lt, Kaunas             */
   3:Core/Src/USER/rtc.c **** /**
   4:Core/Src/USER/rtc.c ****   **********************************************
   5:Core/Src/USER/rtc.c ****   * @file           : rtc.c
   6:Core/Src/USER/rtc.c ****   * @version        : 1.0
   7:Core/Src/USER/rtc.c ****   * @brief          : generic RTC clock and calendar for STM32
   8:Core/Src/USER/rtc.c **** **/  
   9:Core/Src/USER/rtc.c **** /* ********************************************* */
  10:Core/Src/USER/rtc.c **** 
  11:Core/Src/USER/rtc.c **** #include "rtc.h"
  12:Core/Src/USER/rtc.c **** #include "user.h"
ARM GAS  C:\Users\User\AppData\Local\Temp\ccEEhKx4.s 			page 16


  13:Core/Src/USER/rtc.c **** #include "usbd_cdc_if.h"
  14:Core/Src/USER/rtc.c **** 
  15:Core/Src/USER/rtc.c **** //#include "epoch.c"
  16:Core/Src/USER/rtc.c **** 
  17:Core/Src/USER/rtc.c **** extern RTC_HandleTypeDef hrtc;
  18:Core/Src/USER/rtc.c **** 
  19:Core/Src/USER/rtc.c **** 
  20:Core/Src/USER/rtc.c **** // ****** pacioje pradzioje, globalus laikas. Galima persideklaruoti, bet ar verta?
  21:Core/Src/USER/rtc.c **** 
  22:Core/Src/USER/rtc.c **** RTC_TimeTypeDef currTime = {0};
  23:Core/Src/USER/rtc.c **** RTC_TimeTypeDef oldTime = {0xFF,0xFF,0xFF}; //del refresh
  24:Core/Src/USER/rtc.c **** volatile unsigned char LastHour=255;
  25:Core/Src/USER/rtc.c **** 
  26:Core/Src/USER/rtc.c **** // sunaikina sena laika. Naudojama LCD grafikos spartinimui
  27:Core/Src/USER/rtc.c **** void rtc_clean(void)
  28:Core/Src/USER/rtc.c **** {
 223              		.loc 3 28 1 is_stmt 1 view -0
 224              		.cfi_startproc
 225              		@ args = 0, pretend = 0, frame = 0
 226              		@ frame_needed = 0, uses_anonymous_args = 0
 227              		@ link register save eliminated.
  29:Core/Src/USER/rtc.c **** 	oldTime.Hours = 60;
 228              		.loc 3 29 2 view .LVU55
 229              		.loc 3 29 16 is_stmt 0 view .LVU56
 230 0000 024B     		ldr	r3, .L12
 231 0002 3C22     		movs	r2, #60
 232 0004 1A70     		strb	r2, [r3]
  30:Core/Src/USER/rtc.c **** 	oldTime.Minutes = 60;
 233              		.loc 3 30 2 is_stmt 1 view .LVU57
 234              		.loc 3 30 18 is_stmt 0 view .LVU58
 235 0006 5A70     		strb	r2, [r3, #1]
  31:Core/Src/USER/rtc.c **** 	oldTime.Seconds = 60;
 236              		.loc 3 31 2 is_stmt 1 view .LVU59
 237              		.loc 3 31 18 is_stmt 0 view .LVU60
 238 0008 9A70     		strb	r2, [r3, #2]
  32:Core/Src/USER/rtc.c **** }
 239              		.loc 3 32 1 view .LVU61
 240 000a 7047     		bx	lr
 241              	.L13:
 242              		.align	2
 243              	.L12:
 244 000c 00000000 		.word	.LANCHOR1
 245              		.cfi_endproc
 246              	.LFE68:
 248              		.section	.text.filter_string,"ax",%progbits
 249              		.align	1
 250              		.global	filter_string
 251              		.syntax unified
 252              		.thumb
 253              		.thumb_func
 255              	filter_string:
 256              	.LVL7:
 257              	.LFB69:
  33:Core/Src/USER/rtc.c **** 
  34:Core/Src/USER/rtc.c **** 
  35:Core/Src/USER/rtc.c **** // teksto filtras laiko ir datos nustatymui.
  36:Core/Src/USER/rtc.c **** void filter_string(char *Buf)
ARM GAS  C:\Users\User\AppData\Local\Temp\ccEEhKx4.s 			page 17


  37:Core/Src/USER/rtc.c **** {
 258              		.loc 3 37 1 is_stmt 1 view -0
 259              		.cfi_startproc
 260              		@ args = 0, pretend = 0, frame = 0
 261              		@ frame_needed = 0, uses_anonymous_args = 0
 262              		.loc 3 37 1 is_stmt 0 view .LVU63
 263 0000 00B5     		push	{lr}
 264              	.LCFI4:
 265              		.cfi_def_cfa_offset 4
 266              		.cfi_offset 14, -4
 267 0002 0246     		mov	r2, r0
  38:Core/Src/USER/rtc.c **** int i=0;
 268              		.loc 3 38 1 is_stmt 1 view .LVU64
 269              	.LVL8:
  39:Core/Src/USER/rtc.c **** int j=0;
 270              		.loc 3 39 1 view .LVU65
  40:Core/Src/USER/rtc.c **** 
  41:Core/Src/USER/rtc.c **** for(i=0;Buf[i] != 0; i++)
 271              		.loc 3 41 1 view .LVU66
 272              		.loc 3 41 6 is_stmt 0 view .LVU67
 273 0004 4FF0000C 		mov	ip, #0
 274              		.loc 3 41 1 view .LVU68
 275 0008 17E0     		b	.L15
 276              	.LVL9:
 277              	.L16:
  42:Core/Src/USER/rtc.c **** 	{
  43:Core/Src/USER/rtc.c **** 	while(!((Buf[i]>='0' && Buf[i]<='9') || Buf[i]==':' || Buf[i]=='.') && !(Buf[i]==0))
  44:Core/Src/USER/rtc.c **** 		{
  45:Core/Src/USER/rtc.c **** 			for(j=i;Buf[j] !=0; ++j)
  46:Core/Src/USER/rtc.c **** 				{
  47:Core/Src/USER/rtc.c **** 					Buf[j]=Buf[j+1];
 278              		.loc 3 47 6 is_stmt 1 discriminator 3 view .LVU69
 279              		.loc 3 47 16 is_stmt 0 discriminator 3 view .LVU70
 280 000a D118     		adds	r1, r2, r3
 281 000c 4978     		ldrb	r1, [r1, #1]	@ zero_extendqisi2
 282              		.loc 3 47 12 discriminator 3 view .LVU71
 283 000e D154     		strb	r1, [r2, r3]
  45:Core/Src/USER/rtc.c **** 				{
 284              		.loc 3 45 24 is_stmt 1 discriminator 3 view .LVU72
 285 0010 0133     		adds	r3, r3, #1
 286              	.LVL10:
 287              	.L18:
  45:Core/Src/USER/rtc.c **** 				{
 288              		.loc 3 45 12 discriminator 1 view .LVU73
  45:Core/Src/USER/rtc.c **** 				{
 289              		.loc 3 45 15 is_stmt 0 discriminator 1 view .LVU74
 290 0012 D018     		adds	r0, r2, r3
 291 0014 D15C     		ldrb	r1, [r2, r3]	@ zero_extendqisi2
  45:Core/Src/USER/rtc.c **** 				{
 292              		.loc 3 45 4 discriminator 1 view .LVU75
 293 0016 0029     		cmp	r1, #0
 294 0018 F7D1     		bne	.L16
  48:Core/Src/USER/rtc.c **** 				}
  49:Core/Src/USER/rtc.c **** 			Buf[j]=0;
 295              		.loc 3 49 4 is_stmt 1 view .LVU76
 296              		.loc 3 49 10 is_stmt 0 view .LVU77
 297 001a 0023     		movs	r3, #0
ARM GAS  C:\Users\User\AppData\Local\Temp\ccEEhKx4.s 			page 18


 298              	.LVL11:
 299              		.loc 3 49 10 view .LVU78
 300 001c 0370     		strb	r3, [r0]
 301              	.L19:
  43:Core/Src/USER/rtc.c **** 		{
 302              		.loc 3 43 7 is_stmt 1 view .LVU79
  43:Core/Src/USER/rtc.c **** 		{
 303              		.loc 3 43 14 is_stmt 0 view .LVU80
 304 001e 9EF80010 		ldrb	r1, [lr]	@ zero_extendqisi2
  43:Core/Src/USER/rtc.c **** 		{
 305              		.loc 3 43 39 view .LVU81
 306 0022 A1F13003 		sub	r3, r1, #48
 307 0026 DBB2     		uxtb	r3, r3
  43:Core/Src/USER/rtc.c **** 		{
 308              		.loc 3 43 7 view .LVU82
 309 0028 0A2B     		cmp	r3, #10
 310 002a 04D9     		bls	.L17
  43:Core/Src/USER/rtc.c **** 		{
 311              		.loc 3 43 8 discriminator 1 view .LVU83
 312 002c 2E29     		cmp	r1, #46
 313 002e 02D0     		beq	.L17
  43:Core/Src/USER/rtc.c **** 		{
 314              		.loc 3 43 70 discriminator 2 view .LVU84
 315 0030 09B1     		cbz	r1, .L17
  45:Core/Src/USER/rtc.c **** 				{
 316              		.loc 3 45 9 view .LVU85
 317 0032 6346     		mov	r3, ip
 318 0034 EDE7     		b	.L18
 319              	.L17:
  41:Core/Src/USER/rtc.c **** 	{
 320              		.loc 3 41 22 is_stmt 1 discriminator 2 view .LVU86
  41:Core/Src/USER/rtc.c **** 	{
 321              		.loc 3 41 23 is_stmt 0 discriminator 2 view .LVU87
 322 0036 0CF1010C 		add	ip, ip, #1
 323              	.LVL12:
 324              	.L15:
  41:Core/Src/USER/rtc.c **** 	{
 325              		.loc 3 41 9 is_stmt 1 discriminator 1 view .LVU88
  41:Core/Src/USER/rtc.c **** 	{
 326              		.loc 3 41 12 is_stmt 0 discriminator 1 view .LVU89
 327 003a 02EB0C0E 		add	lr, r2, ip
 328 003e 12F80C30 		ldrb	r3, [r2, ip]	@ zero_extendqisi2
  41:Core/Src/USER/rtc.c **** 	{
 329              		.loc 3 41 1 discriminator 1 view .LVU90
 330 0042 002B     		cmp	r3, #0
 331 0044 EBD1     		bne	.L19
  50:Core/Src/USER/rtc.c **** 		}
  51:Core/Src/USER/rtc.c **** 	}
  52:Core/Src/USER/rtc.c **** }
 332              		.loc 3 52 1 view .LVU91
 333 0046 5DF804FB 		ldr	pc, [sp], #4
 334              		.cfi_endproc
 335              	.LFE69:
 337              		.section	.text.rtc_update,"ax",%progbits
 338              		.align	1
 339              		.global	rtc_update
 340              		.syntax unified
ARM GAS  C:\Users\User\AppData\Local\Temp\ccEEhKx4.s 			page 19


 341              		.thumb
 342              		.thumb_func
 344              	rtc_update:
 345              	.LFB72:
  53:Core/Src/USER/rtc.c **** 
  54:Core/Src/USER/rtc.c **** //nustatyti kalendoriu.
  55:Core/Src/USER/rtc.c **** void rtc_set_date_text(char * Buf)
  56:Core/Src/USER/rtc.c **** {
  57:Core/Src/USER/rtc.c **** filter_string(Buf);
  58:Core/Src/USER/rtc.c **** //22.12.23
  59:Core/Src/USER/rtc.c **** 
  60:Core/Src/USER/rtc.c **** RTC_DateTypeDef dienos;
  61:Core/Src/USER/rtc.c **** 
  62:Core/Src/USER/rtc.c **** if(strlen(Buf)<8) return;
  63:Core/Src/USER/rtc.c **** 	char delim[] = ".";
  64:Core/Src/USER/rtc.c **** 
  65:Core/Src/USER/rtc.c **** 	char *ptr = strtok(Buf, delim);
  66:Core/Src/USER/rtc.c **** 	dienos.Year=atoi(ptr);
  67:Core/Src/USER/rtc.c **** 	
  68:Core/Src/USER/rtc.c **** 	ptr = strtok(NULL, delim);
  69:Core/Src/USER/rtc.c **** 	dienos.Month=atoi(ptr);
  70:Core/Src/USER/rtc.c **** 	
  71:Core/Src/USER/rtc.c **** 	ptr = strtok(NULL, delim);
  72:Core/Src/USER/rtc.c **** 	dienos.Date=atoi(ptr);
  73:Core/Src/USER/rtc.c **** 	
  74:Core/Src/USER/rtc.c ****  if (HAL_RTC_SetDate(&hrtc, &dienos, RTC_FORMAT_BIN) != HAL_OK)
  75:Core/Src/USER/rtc.c ****   {
  76:Core/Src/USER/rtc.c ****     Error_Handler();
  77:Core/Src/USER/rtc.c ****   }
  78:Core/Src/USER/rtc.c ****   
  79:Core/Src/USER/rtc.c **** //  rtc_backup_date();
  80:Core/Src/USER/rtc.c **** }
  81:Core/Src/USER/rtc.c **** 
  82:Core/Src/USER/rtc.c **** //nustatyti laikrodi
  83:Core/Src/USER/rtc.c **** void rtc_set_time_text(char * Buf)
  84:Core/Src/USER/rtc.c **** {
  85:Core/Src/USER/rtc.c **** // echo ATT%TIME% >COMx
  86:Core/Src/USER/rtc.c **** //ATT19:14:32.94
  87:Core/Src/USER/rtc.c **** 
  88:Core/Src/USER/rtc.c **** 
  89:Core/Src/USER/rtc.c **** filter_string(Buf);
  90:Core/Src/USER/rtc.c **** 
  91:Core/Src/USER/rtc.c **** if(strlen(Buf)<8) return;
  92:Core/Src/USER/rtc.c **** 
  93:Core/Src/USER/rtc.c **** 	char delim[] = ":";
  94:Core/Src/USER/rtc.c **** 
  95:Core/Src/USER/rtc.c **** 	char *ptr = strtok(Buf, delim);
  96:Core/Src/USER/rtc.c **** 	currTime.Hours=atoi(ptr);
  97:Core/Src/USER/rtc.c **** 	
  98:Core/Src/USER/rtc.c **** 	ptr = strtok(NULL, delim);
  99:Core/Src/USER/rtc.c **** 	currTime.Minutes=atoi(ptr);
 100:Core/Src/USER/rtc.c **** 	
 101:Core/Src/USER/rtc.c **** 	ptr = strtok(NULL, delim);
 102:Core/Src/USER/rtc.c **** 	currTime.Seconds=atoi(ptr);
 103:Core/Src/USER/rtc.c **** 	
 104:Core/Src/USER/rtc.c ****  if (HAL_RTC_SetTime(&hrtc, &currTime, RTC_FORMAT_BIN) != HAL_OK)
 105:Core/Src/USER/rtc.c ****   {
ARM GAS  C:\Users\User\AppData\Local\Temp\ccEEhKx4.s 			page 20


 106:Core/Src/USER/rtc.c ****     Error_Handler();
 107:Core/Src/USER/rtc.c ****   }
 108:Core/Src/USER/rtc.c **** 
 109:Core/Src/USER/rtc.c **** }
 110:Core/Src/USER/rtc.c **** 
 111:Core/Src/USER/rtc.c **** // nuskaityti laika is hardwares.
 112:Core/Src/USER/rtc.c **** void rtc_update(void)
 113:Core/Src/USER/rtc.c **** {
 346              		.loc 3 113 1 is_stmt 1 view -0
 347              		.cfi_startproc
 348              		@ args = 0, pretend = 0, frame = 0
 349              		@ frame_needed = 0, uses_anonymous_args = 0
 350 0000 08B5     		push	{r3, lr}
 351              	.LCFI5:
 352              		.cfi_def_cfa_offset 8
 353              		.cfi_offset 3, -8
 354              		.cfi_offset 14, -4
 114:Core/Src/USER/rtc.c **** 	HAL_RTC_GetTime(&hrtc, &currTime, RTC_FORMAT_BIN);
 355              		.loc 3 114 2 view .LVU93
 356 0002 0022     		movs	r2, #0
 357 0004 0249     		ldr	r1, .L24
 358 0006 0348     		ldr	r0, .L24+4
 359 0008 FFF7FEFF 		bl	HAL_RTC_GetTime
 360              	.LVL13:
 115:Core/Src/USER/rtc.c **** }
 361              		.loc 3 115 1 is_stmt 0 view .LVU94
 362 000c 08BD     		pop	{r3, pc}
 363              	.L25:
 364 000e 00BF     		.align	2
 365              	.L24:
 366 0010 00000000 		.word	.LANCHOR2
 367 0014 00000000 		.word	.LANCHOR3
 368              		.cfi_endproc
 369              	.LFE72:
 371              		.section	.text.rtc_time_string,"ax",%progbits
 372              		.align	1
 373              		.global	rtc_time_string
 374              		.syntax unified
 375              		.thumb
 376              		.thumb_func
 378              	rtc_time_string:
 379              	.LVL14:
 380              	.LFB73:
 116:Core/Src/USER/rtc.c **** 
 117:Core/Src/USER/rtc.c **** //rtc->tekstas
 118:Core/Src/USER/rtc.c **** void rtc_time_string(char * text)
 119:Core/Src/USER/rtc.c **** {
 381              		.loc 3 119 1 is_stmt 1 view -0
 382              		.cfi_startproc
 383              		@ args = 0, pretend = 0, frame = 0
 384              		@ frame_needed = 0, uses_anonymous_args = 0
 385              		.loc 3 119 1 is_stmt 0 view .LVU96
 386 0000 38B5     		push	{r3, r4, r5, lr}
 387              	.LCFI6:
 388              		.cfi_def_cfa_offset 16
 389              		.cfi_offset 3, -16
 390              		.cfi_offset 4, -12
ARM GAS  C:\Users\User\AppData\Local\Temp\ccEEhKx4.s 			page 21


 391              		.cfi_offset 5, -8
 392              		.cfi_offset 14, -4
 393 0002 0446     		mov	r4, r0
 120:Core/Src/USER/rtc.c **** 	HAL_RTC_GetTime(&hrtc, &currTime, RTC_FORMAT_BIN);
 394              		.loc 3 120 2 is_stmt 1 view .LVU97
 395 0004 1B4D     		ldr	r5, .L28
 396 0006 0022     		movs	r2, #0
 397 0008 2946     		mov	r1, r5
 398 000a 1B48     		ldr	r0, .L28+4
 399              	.LVL15:
 400              		.loc 3 120 2 is_stmt 0 view .LVU98
 401 000c FFF7FEFF 		bl	HAL_RTC_GetTime
 402              	.LVL16:
 121:Core/Src/USER/rtc.c **** 	text[0]=(currTime.Hours)/10+'0';
 403              		.loc 3 121 2 is_stmt 1 view .LVU99
 404              		.loc 3 121 19 is_stmt 0 view .LVU100
 405 0010 2A78     		ldrb	r2, [r5]	@ zero_extendqisi2
 406              		.loc 3 121 29 view .LVU101
 407 0012 1A4B     		ldr	r3, .L28+8
 408 0014 A3FB0212 		umull	r1, r2, r3, r2
 409 0018 D208     		lsrs	r2, r2, #3
 410 001a 3032     		adds	r2, r2, #48
 411              		.loc 3 121 9 view .LVU102
 412 001c 2270     		strb	r2, [r4]
 122:Core/Src/USER/rtc.c **** 	text[1]=(currTime.Hours)%10+'0';
 413              		.loc 3 122 2 is_stmt 1 view .LVU103
 414              		.loc 3 122 19 is_stmt 0 view .LVU104
 415 001e 2A78     		ldrb	r2, [r5]	@ zero_extendqisi2
 416              		.loc 3 122 29 view .LVU105
 417 0020 A3FB0201 		umull	r0, r1, r3, r2
 418 0024 C908     		lsrs	r1, r1, #3
 419 0026 01EB8101 		add	r1, r1, r1, lsl #2
 420 002a A2EB4102 		sub	r2, r2, r1, lsl #1
 421 002e 3032     		adds	r2, r2, #48
 422              		.loc 3 122 9 view .LVU106
 423 0030 6270     		strb	r2, [r4, #1]
 123:Core/Src/USER/rtc.c **** 	text[2]=':';	
 424              		.loc 3 123 2 is_stmt 1 view .LVU107
 425              		.loc 3 123 9 is_stmt 0 view .LVU108
 426 0032 3A20     		movs	r0, #58
 427 0034 A070     		strb	r0, [r4, #2]
 124:Core/Src/USER/rtc.c **** 
 125:Core/Src/USER/rtc.c **** 	text[3]=(currTime.Minutes)/10+'0';
 428              		.loc 3 125 2 is_stmt 1 view .LVU109
 429              		.loc 3 125 19 is_stmt 0 view .LVU110
 430 0036 6978     		ldrb	r1, [r5, #1]	@ zero_extendqisi2
 431              		.loc 3 125 31 view .LVU111
 432 0038 A3FB01C2 		umull	ip, r2, r3, r1
 433 003c D208     		lsrs	r2, r2, #3
 434 003e 02F1300C 		add	ip, r2, #48
 435              		.loc 3 125 9 view .LVU112
 436 0042 84F803C0 		strb	ip, [r4, #3]
 126:Core/Src/USER/rtc.c **** 	text[4]=(currTime.Minutes)%10+'0';
 437              		.loc 3 126 2 is_stmt 1 view .LVU113
 438              		.loc 3 126 31 is_stmt 0 view .LVU114
 439 0046 02EB8202 		add	r2, r2, r2, lsl #2
 440 004a A1EB4202 		sub	r2, r1, r2, lsl #1
ARM GAS  C:\Users\User\AppData\Local\Temp\ccEEhKx4.s 			page 22


 441 004e 3032     		adds	r2, r2, #48
 442              		.loc 3 126 9 view .LVU115
 443 0050 2271     		strb	r2, [r4, #4]
 127:Core/Src/USER/rtc.c **** 	text[5]=':';	
 444              		.loc 3 127 2 is_stmt 1 view .LVU116
 445              		.loc 3 127 9 is_stmt 0 view .LVU117
 446 0052 6071     		strb	r0, [r4, #5]
 128:Core/Src/USER/rtc.c **** 
 129:Core/Src/USER/rtc.c **** 	text[6]=(currTime.Seconds)/10+'0';
 447              		.loc 3 129 2 is_stmt 1 view .LVU118
 448              		.loc 3 129 19 is_stmt 0 view .LVU119
 449 0054 AA78     		ldrb	r2, [r5, #2]	@ zero_extendqisi2
 450              		.loc 3 129 31 view .LVU120
 451 0056 A3FB0213 		umull	r1, r3, r3, r2
 452 005a DB08     		lsrs	r3, r3, #3
 453 005c 03F13001 		add	r1, r3, #48
 454              		.loc 3 129 9 view .LVU121
 455 0060 A171     		strb	r1, [r4, #6]
 130:Core/Src/USER/rtc.c **** 	text[7]=(currTime.Seconds)%10+'0';
 456              		.loc 3 130 2 is_stmt 1 view .LVU122
 457              		.loc 3 130 31 is_stmt 0 view .LVU123
 458 0062 03EB8303 		add	r3, r3, r3, lsl #2
 459 0066 A2EB4303 		sub	r3, r2, r3, lsl #1
 460 006a 3033     		adds	r3, r3, #48
 461              		.loc 3 130 9 view .LVU124
 462 006c E371     		strb	r3, [r4, #7]
 131:Core/Src/USER/rtc.c **** 	text[8]=0;
 463              		.loc 3 131 2 is_stmt 1 view .LVU125
 464              		.loc 3 131 9 is_stmt 0 view .LVU126
 465 006e 0023     		movs	r3, #0
 466 0070 2372     		strb	r3, [r4, #8]
 132:Core/Src/USER/rtc.c **** }
 467              		.loc 3 132 1 view .LVU127
 468 0072 38BD     		pop	{r3, r4, r5, pc}
 469              	.LVL17:
 470              	.L29:
 471              		.loc 3 132 1 view .LVU128
 472              		.align	2
 473              	.L28:
 474 0074 00000000 		.word	.LANCHOR2
 475 0078 00000000 		.word	.LANCHOR3
 476 007c CDCCCCCC 		.word	-858993459
 477              		.cfi_endproc
 478              	.LFE73:
 480              		.section	.text.rtc_date_string,"ax",%progbits
 481              		.align	1
 482              		.global	rtc_date_string
 483              		.syntax unified
 484              		.thumb
 485              		.thumb_func
 487              	rtc_date_string:
 488              	.LVL18:
 489              	.LFB74:
 133:Core/Src/USER/rtc.c **** void rtc_date_string(char * text)
 134:Core/Src/USER/rtc.c **** {
 490              		.loc 3 134 1 is_stmt 1 view -0
 491              		.cfi_startproc
ARM GAS  C:\Users\User\AppData\Local\Temp\ccEEhKx4.s 			page 23


 492              		@ args = 0, pretend = 0, frame = 8
 493              		@ frame_needed = 0, uses_anonymous_args = 0
 494              		.loc 3 134 1 is_stmt 0 view .LVU130
 495 0000 10B5     		push	{r4, lr}
 496              	.LCFI7:
 497              		.cfi_def_cfa_offset 8
 498              		.cfi_offset 4, -8
 499              		.cfi_offset 14, -4
 500 0002 82B0     		sub	sp, sp, #8
 501              	.LCFI8:
 502              		.cfi_def_cfa_offset 16
 503 0004 0446     		mov	r4, r0
 135:Core/Src/USER/rtc.c **** 	RTC_DateTypeDef dienos;
 504              		.loc 3 135 2 is_stmt 1 view .LVU131
 136:Core/Src/USER/rtc.c **** 	HAL_RTC_GetDate(&hrtc, &dienos, RTC_FORMAT_BIN);
 505              		.loc 3 136 2 view .LVU132
 506 0006 0022     		movs	r2, #0
 507 0008 01A9     		add	r1, sp, #4
 508 000a 1B48     		ldr	r0, .L32
 509              	.LVL19:
 510              		.loc 3 136 2 is_stmt 0 view .LVU133
 511 000c FFF7FEFF 		bl	HAL_RTC_GetDate
 512              	.LVL20:
 137:Core/Src/USER/rtc.c **** 
 138:Core/Src/USER/rtc.c **** 	text[0]=(dienos.Year)/10+'0';
 513              		.loc 3 138 2 is_stmt 1 view .LVU134
 514              		.loc 3 138 17 is_stmt 0 view .LVU135
 515 0010 9DF80710 		ldrb	r1, [sp, #7]	@ zero_extendqisi2
 516              		.loc 3 138 26 view .LVU136
 517 0014 194B     		ldr	r3, .L32+4
 518 0016 A3FB0102 		umull	r0, r2, r3, r1
 519 001a D208     		lsrs	r2, r2, #3
 520 001c 02F13000 		add	r0, r2, #48
 521              		.loc 3 138 9 view .LVU137
 522 0020 2070     		strb	r0, [r4]
 139:Core/Src/USER/rtc.c **** 	text[1]=(dienos.Year)%10+'0';
 523              		.loc 3 139 2 is_stmt 1 view .LVU138
 524              		.loc 3 139 26 is_stmt 0 view .LVU139
 525 0022 02EB8202 		add	r2, r2, r2, lsl #2
 526 0026 A1EB4202 		sub	r2, r1, r2, lsl #1
 527 002a 3032     		adds	r2, r2, #48
 528              		.loc 3 139 9 view .LVU140
 529 002c 6270     		strb	r2, [r4, #1]
 140:Core/Src/USER/rtc.c **** 	text[2]='.';
 530              		.loc 3 140 2 is_stmt 1 view .LVU141
 531              		.loc 3 140 9 is_stmt 0 view .LVU142
 532 002e 2E20     		movs	r0, #46
 533 0030 A070     		strb	r0, [r4, #2]
 141:Core/Src/USER/rtc.c **** 	text[3]=(dienos.Month)/10+'0';
 534              		.loc 3 141 2 is_stmt 1 view .LVU143
 535              		.loc 3 141 17 is_stmt 0 view .LVU144
 536 0032 9DF80510 		ldrb	r1, [sp, #5]	@ zero_extendqisi2
 537              		.loc 3 141 27 view .LVU145
 538 0036 A3FB01C2 		umull	ip, r2, r3, r1
 539 003a D208     		lsrs	r2, r2, #3
 540 003c 02F1300C 		add	ip, r2, #48
 541              		.loc 3 141 9 view .LVU146
ARM GAS  C:\Users\User\AppData\Local\Temp\ccEEhKx4.s 			page 24


 542 0040 84F803C0 		strb	ip, [r4, #3]
 142:Core/Src/USER/rtc.c **** 	text[4]=(dienos.Month)%10+'0';
 543              		.loc 3 142 2 is_stmt 1 view .LVU147
 544              		.loc 3 142 27 is_stmt 0 view .LVU148
 545 0044 02EB8202 		add	r2, r2, r2, lsl #2
 546 0048 A1EB4202 		sub	r2, r1, r2, lsl #1
 547 004c 3032     		adds	r2, r2, #48
 548              		.loc 3 142 9 view .LVU149
 549 004e 2271     		strb	r2, [r4, #4]
 143:Core/Src/USER/rtc.c **** 	text[5]='.';
 550              		.loc 3 143 2 is_stmt 1 view .LVU150
 551              		.loc 3 143 9 is_stmt 0 view .LVU151
 552 0050 6071     		strb	r0, [r4, #5]
 144:Core/Src/USER/rtc.c **** 	text[6]=(dienos.Date)/10+'0';
 553              		.loc 3 144 2 is_stmt 1 view .LVU152
 554              		.loc 3 144 17 is_stmt 0 view .LVU153
 555 0052 9DF80620 		ldrb	r2, [sp, #6]	@ zero_extendqisi2
 556              		.loc 3 144 26 view .LVU154
 557 0056 A3FB0213 		umull	r1, r3, r3, r2
 558 005a DB08     		lsrs	r3, r3, #3
 559 005c 03F13001 		add	r1, r3, #48
 560              		.loc 3 144 9 view .LVU155
 561 0060 A171     		strb	r1, [r4, #6]
 145:Core/Src/USER/rtc.c **** 	text[7]=(dienos.Date)%10+'0';
 562              		.loc 3 145 2 is_stmt 1 view .LVU156
 563              		.loc 3 145 26 is_stmt 0 view .LVU157
 564 0062 03EB8303 		add	r3, r3, r3, lsl #2
 565 0066 A2EB4303 		sub	r3, r2, r3, lsl #1
 566 006a 3033     		adds	r3, r3, #48
 567              		.loc 3 145 9 view .LVU158
 568 006c E371     		strb	r3, [r4, #7]
 146:Core/Src/USER/rtc.c **** 	text[8]=0;
 569              		.loc 3 146 2 is_stmt 1 view .LVU159
 570              		.loc 3 146 9 is_stmt 0 view .LVU160
 571 006e 0023     		movs	r3, #0
 572 0070 2372     		strb	r3, [r4, #8]
 147:Core/Src/USER/rtc.c **** }
 573              		.loc 3 147 1 view .LVU161
 574 0072 02B0     		add	sp, sp, #8
 575              	.LCFI9:
 576              		.cfi_def_cfa_offset 8
 577              		@ sp needed
 578 0074 10BD     		pop	{r4, pc}
 579              	.LVL21:
 580              	.L33:
 581              		.loc 3 147 1 view .LVU162
 582 0076 00BF     		.align	2
 583              	.L32:
 584 0078 00000000 		.word	.LANCHOR3
 585 007c CDCCCCCC 		.word	-858993459
 586              		.cfi_endproc
 587              	.LFE74:
 589              		.section	.text.rtc_int_init,"ax",%progbits
 590              		.align	1
 591              		.global	rtc_int_init
 592              		.syntax unified
 593              		.thumb
ARM GAS  C:\Users\User\AppData\Local\Temp\ccEEhKx4.s 			page 25


 594              		.thumb_func
 596              	rtc_int_init:
 597              	.LFB75:
 148:Core/Src/USER/rtc.c **** 
 149:Core/Src/USER/rtc.c **** //void rtc_backup_date(void)
 150:Core/Src/USER/rtc.c **** //{
 151:Core/Src/USER/rtc.c **** //RTC_DateTypeDef dienos;
 152:Core/Src/USER/rtc.c **** //	if(HAL_RTCEx_BKUPRead(&hrtc,RTC_BKP_DR1)== 0x5051) //magic number, valid backup
 153:Core/Src/USER/rtc.c **** //	{
 154:Core/Src/USER/rtc.c **** //		HAL_RTC_GetDate(&hrtc, &dienos, RTC_FORMAT_BIN);
 155:Core/Src/USER/rtc.c **** //		HAL_RTC_GetTime(&hrtc, &currTime, RTC_FORMAT_BIN);
 156:Core/Src/USER/rtc.c **** //		HAL_RTCEx_BKUPWrite(&hrtc, RTC_BKP_DR2, (uint16_t) (dienos.Year<<8) + dienos.Month);	
 157:Core/Src/USER/rtc.c **** //		HAL_RTCEx_BKUPWrite(&hrtc, RTC_BKP_DR3, (uint16_t) (dienos.Date<<8) + currTime.Hours);	
 158:Core/Src/USER/rtc.c **** //	}
 159:Core/Src/USER/rtc.c **** //}
 160:Core/Src/USER/rtc.c **** 
 161:Core/Src/USER/rtc.c **** 
 162:Core/Src/USER/rtc.c **** 
 163:Core/Src/USER/rtc.c **** /* INT INT INT INT INT INT INT INT INT INT INT INT INT INT INT INT */
 164:Core/Src/USER/rtc.c **** 
 165:Core/Src/USER/rtc.c **** /* ijungti RTC pertraukimus */
 166:Core/Src/USER/rtc.c **** void rtc_int_init(void)
 167:Core/Src/USER/rtc.c **** {
 598              		.loc 3 167 1 is_stmt 1 view -0
 599              		.cfi_startproc
 600              		@ args = 0, pretend = 0, frame = 0
 601              		@ frame_needed = 0, uses_anonymous_args = 0
 602              		@ link register save eliminated.
 168:Core/Src/USER/rtc.c **** 	__HAL_RTC_SECOND_ENABLE_IT(&hrtc,RTC_IT_SEC); //turn on RTC clock seconds interrupt
 603              		.loc 3 168 2 view .LVU164
 604 0000 034B     		ldr	r3, .L35
 605 0002 1A68     		ldr	r2, [r3]
 606 0004 1368     		ldr	r3, [r2]
 607 0006 43F00103 		orr	r3, r3, #1
 608 000a 1360     		str	r3, [r2]
 169:Core/Src/USER/rtc.c **** }
 609              		.loc 3 169 1 is_stmt 0 view .LVU165
 610 000c 7047     		bx	lr
 611              	.L36:
 612 000e 00BF     		.align	2
 613              	.L35:
 614 0010 00000000 		.word	.LANCHOR3
 615              		.cfi_endproc
 616              	.LFE75:
 618              		.section	.text.circle_reset,"ax",%progbits
 619              		.align	1
 620              		.global	circle_reset
 621              		.syntax unified
 622              		.thumb
 623              		.thumb_func
 625              	circle_reset:
 626              	.LVL22:
 627              	.LFB77:
 628              		.file 4 "Core/Src/USER/circular_buffer.c"
   1:Core/Src/USER/circular_buffer.c **** /* ********************************************* */
   2:Core/Src/USER/circular_buffer.c **** /* (c)2022 by www.vabolis.lt, Kaunas             */
   3:Core/Src/USER/circular_buffer.c **** /**
ARM GAS  C:\Users\User\AppData\Local\Temp\ccEEhKx4.s 			page 26


   4:Core/Src/USER/circular_buffer.c ****   **********************************************
   5:Core/Src/USER/circular_buffer.c ****   * @file           : circular_buffer.c
   6:Core/Src/USER/circular_buffer.c ****   * @version        : 1.0
   7:Core/Src/USER/circular_buffer.c ****   * @brief          : circular buffer for uart/usb
   8:Core/Src/USER/circular_buffer.c **** **/  
   9:Core/Src/USER/circular_buffer.c **** /* ********************************************* */
  10:Core/Src/USER/circular_buffer.c **** 
  11:Core/Src/USER/circular_buffer.c **** #include "circular_buffer.h"
  12:Core/Src/USER/circular_buffer.c **** 
  13:Core/Src/USER/circular_buffer.c **** /* INSTRUKCIJA
  14:Core/Src/USER/circular_buffer.c **** #define BUFFER_SIZE 32
  15:Core/Src/USER/circular_buffer.c **** 
  16:Core/Src/USER/circular_buffer.c **** unsigned char testas[BUFFER_SIZE];
  17:Core/Src/USER/circular_buffer.c **** CCBuf cc; //struktura
  18:Core/Src/USER/circular_buffer.c **** //init
  19:Core/Src/USER/circular_buffer.c **** cc.buffer=testas;
  20:Core/Src/USER/circular_buffer.c **** circle_reset(&cc,BUFFER_SIZE);
  21:Core/Src/USER/circular_buffer.c **** 
  22:Core/Src/USER/circular_buffer.c **** //naudojimas
  23:Core/Src/USER/circular_buffer.c **** 
  24:Core/Src/USER/circular_buffer.c **** while(circle_available(&cc)>0) {a=circle_pull(&cc); naudoti duomenys}
  25:Core/Src/USER/circular_buffer.c **** 					
  26:Core/Src/USER/circular_buffer.c **** // uart callback
  27:Core/Src/USER/circular_buffer.c **** circle_push(&cc , baitinisbuferis); // push received byte to circular buffer
  28:Core/Src/USER/circular_buffer.c **** 					
  29:Core/Src/USER/circular_buffer.c **** 
  30:Core/Src/USER/circular_buffer.c **** ************* */
  31:Core/Src/USER/circular_buffer.c **** 
  32:Core/Src/USER/circular_buffer.c **** 
  33:Core/Src/USER/circular_buffer.c **** 
  34:Core/Src/USER/circular_buffer.c **** void circle_reset(CCBuf *c, size_t size)
  35:Core/Src/USER/circular_buffer.c **** {
 629              		.loc 4 35 1 is_stmt 1 view -0
 630              		.cfi_startproc
 631              		@ args = 0, pretend = 0, frame = 0
 632              		@ frame_needed = 0, uses_anonymous_args = 0
 633              		@ link register save eliminated.
  36:Core/Src/USER/circular_buffer.c **** 	c->head=0;
 634              		.loc 4 36 2 view .LVU167
 635              		.loc 4 36 9 is_stmt 0 view .LVU168
 636 0000 0023     		movs	r3, #0
 637 0002 4360     		str	r3, [r0, #4]
  37:Core/Src/USER/circular_buffer.c **** 	c->tail=0;
 638              		.loc 4 37 2 is_stmt 1 view .LVU169
 639              		.loc 4 37 9 is_stmt 0 view .LVU170
 640 0004 8360     		str	r3, [r0, #8]
  38:Core/Src/USER/circular_buffer.c **** 	c->max=size; //sizeof(c->buffer); <-- negauna sitos informacijos
 641              		.loc 4 38 2 is_stmt 1 view .LVU171
 642              		.loc 4 38 8 is_stmt 0 view .LVU172
 643 0006 0161     		str	r1, [r0, #16]
  39:Core/Src/USER/circular_buffer.c **** 	c->count=0;
 644              		.loc 4 39 2 is_stmt 1 view .LVU173
 645              		.loc 4 39 10 is_stmt 0 view .LVU174
 646 0008 C360     		str	r3, [r0, #12]
  40:Core/Src/USER/circular_buffer.c **** }
 647              		.loc 4 40 1 view .LVU175
 648 000a 7047     		bx	lr
ARM GAS  C:\Users\User\AppData\Local\Temp\ccEEhKx4.s 			page 27


 649              		.cfi_endproc
 650              	.LFE77:
 652              		.section	.text.circle_push,"ax",%progbits
 653              		.align	1
 654              		.global	circle_push
 655              		.syntax unified
 656              		.thumb
 657              		.thumb_func
 659              	circle_push:
 660              	.LVL23:
 661              	.LFB78:
  41:Core/Src/USER/circular_buffer.c **** 
  42:Core/Src/USER/circular_buffer.c **** void circle_push(CCBuf *c,unsigned char b)
  43:Core/Src/USER/circular_buffer.c **** {
 662              		.loc 4 43 1 is_stmt 1 view -0
 663              		.cfi_startproc
 664              		@ args = 0, pretend = 0, frame = 0
 665              		@ frame_needed = 0, uses_anonymous_args = 0
 666              		@ link register save eliminated.
  44:Core/Src/USER/circular_buffer.c **** 	c->buffer[c->head]=b;
 667              		.loc 4 44 2 view .LVU177
 668              		.loc 4 44 3 is_stmt 0 view .LVU178
 669 0000 0268     		ldr	r2, [r0]
 670              		.loc 4 44 13 view .LVU179
 671 0002 4368     		ldr	r3, [r0, #4]
 672              		.loc 4 44 20 view .LVU180
 673 0004 D154     		strb	r1, [r2, r3]
  45:Core/Src/USER/circular_buffer.c **** 	c->head++; if(c->head == c->max) {c->head=0;}
 674              		.loc 4 45 2 is_stmt 1 view .LVU181
 675              		.loc 4 45 3 is_stmt 0 view .LVU182
 676 0006 4368     		ldr	r3, [r0, #4]
 677              		.loc 4 45 9 view .LVU183
 678 0008 0133     		adds	r3, r3, #1
 679 000a 4360     		str	r3, [r0, #4]
 680              		.loc 4 45 13 is_stmt 1 view .LVU184
 681              		.loc 4 45 28 is_stmt 0 view .LVU185
 682 000c 0269     		ldr	r2, [r0, #16]
 683              		.loc 4 45 15 view .LVU186
 684 000e 9342     		cmp	r3, r2
 685 0010 03D0     		beq	.L40
 686              	.L39:
  46:Core/Src/USER/circular_buffer.c **** 	c->count++;
 687              		.loc 4 46 2 is_stmt 1 view .LVU187
 688              		.loc 4 46 3 is_stmt 0 view .LVU188
 689 0012 C368     		ldr	r3, [r0, #12]
 690              		.loc 4 46 10 view .LVU189
 691 0014 0133     		adds	r3, r3, #1
 692 0016 C360     		str	r3, [r0, #12]
  47:Core/Src/USER/circular_buffer.c **** 	//if(c->count == c->max) {c->count=c->max;} //error
  48:Core/Src/USER/circular_buffer.c **** }
 693              		.loc 4 48 1 view .LVU190
 694 0018 7047     		bx	lr
 695              	.L40:
  45:Core/Src/USER/circular_buffer.c **** 	c->count++;
 696              		.loc 4 45 36 is_stmt 1 discriminator 1 view .LVU191
  45:Core/Src/USER/circular_buffer.c **** 	c->count++;
 697              		.loc 4 45 43 is_stmt 0 discriminator 1 view .LVU192
ARM GAS  C:\Users\User\AppData\Local\Temp\ccEEhKx4.s 			page 28


 698 001a 0023     		movs	r3, #0
 699 001c 4360     		str	r3, [r0, #4]
 700 001e F8E7     		b	.L39
 701              		.cfi_endproc
 702              	.LFE78:
 704              		.section	.text.circle_pull,"ax",%progbits
 705              		.align	1
 706              		.global	circle_pull
 707              		.syntax unified
 708              		.thumb
 709              		.thumb_func
 711              	circle_pull:
 712              	.LVL24:
 713              	.LFB79:
  49:Core/Src/USER/circular_buffer.c **** 
  50:Core/Src/USER/circular_buffer.c **** unsigned char circle_pull(CCBuf *c)
  51:Core/Src/USER/circular_buffer.c **** {
 714              		.loc 4 51 1 is_stmt 1 view -0
 715              		.cfi_startproc
 716              		@ args = 0, pretend = 0, frame = 0
 717              		@ frame_needed = 0, uses_anonymous_args = 0
 718              		@ link register save eliminated.
 719              		.loc 4 51 1 is_stmt 0 view .LVU194
 720 0000 0346     		mov	r3, r0
  52:Core/Src/USER/circular_buffer.c **** unsigned char b;
 721              		.loc 4 52 1 is_stmt 1 view .LVU195
  53:Core/Src/USER/circular_buffer.c **** 	b=c->buffer[c->tail];
 722              		.loc 4 53 2 view .LVU196
 723              		.loc 4 53 5 is_stmt 0 view .LVU197
 724 0002 0168     		ldr	r1, [r0]
 725              		.loc 4 53 15 view .LVU198
 726 0004 8268     		ldr	r2, [r0, #8]
 727              		.loc 4 53 3 view .LVU199
 728 0006 885C     		ldrb	r0, [r1, r2]	@ zero_extendqisi2
 729              	.LVL25:
  54:Core/Src/USER/circular_buffer.c **** 	c->tail++;
 730              		.loc 4 54 2 is_stmt 1 view .LVU200
 731              		.loc 4 54 9 is_stmt 0 view .LVU201
 732 0008 0132     		adds	r2, r2, #1
 733 000a 9A60     		str	r2, [r3, #8]
  55:Core/Src/USER/circular_buffer.c **** 	if(c->tail == c->max) {c->tail=0;}
 734              		.loc 4 55 2 is_stmt 1 view .LVU202
 735              		.loc 4 55 17 is_stmt 0 view .LVU203
 736 000c 1969     		ldr	r1, [r3, #16]
 737              		.loc 4 55 4 view .LVU204
 738 000e 8A42     		cmp	r2, r1
 739 0010 03D0     		beq	.L43
 740              	.L42:
  56:Core/Src/USER/circular_buffer.c **** 	c->count--;
 741              		.loc 4 56 2 is_stmt 1 view .LVU205
 742              		.loc 4 56 3 is_stmt 0 view .LVU206
 743 0012 DA68     		ldr	r2, [r3, #12]
 744              		.loc 4 56 10 view .LVU207
 745 0014 013A     		subs	r2, r2, #1
 746 0016 DA60     		str	r2, [r3, #12]
  57:Core/Src/USER/circular_buffer.c **** 	//if(c->count == c->max){c->count=0;} //error
  58:Core/Src/USER/circular_buffer.c **** return b;
ARM GAS  C:\Users\User\AppData\Local\Temp\ccEEhKx4.s 			page 29


 747              		.loc 4 58 1 is_stmt 1 view .LVU208
  59:Core/Src/USER/circular_buffer.c **** }
 748              		.loc 4 59 1 is_stmt 0 view .LVU209
 749 0018 7047     		bx	lr
 750              	.L43:
  55:Core/Src/USER/circular_buffer.c **** 	c->count--;
 751              		.loc 4 55 25 is_stmt 1 discriminator 1 view .LVU210
  55:Core/Src/USER/circular_buffer.c **** 	c->count--;
 752              		.loc 4 55 32 is_stmt 0 discriminator 1 view .LVU211
 753 001a 0022     		movs	r2, #0
 754 001c 9A60     		str	r2, [r3, #8]
 755 001e F8E7     		b	.L42
 756              		.cfi_endproc
 757              	.LFE79:
 759              		.section	.text.circle_push_buf,"ax",%progbits
 760              		.align	1
 761              		.global	circle_push_buf
 762              		.syntax unified
 763              		.thumb
 764              		.thumb_func
 766              	circle_push_buf:
 767              	.LVL26:
 768              	.LFB80:
  60:Core/Src/USER/circular_buffer.c **** 
  61:Core/Src/USER/circular_buffer.c **** void circle_push_buf(CCBuf *c, unsigned char *b, size_t len)
  62:Core/Src/USER/circular_buffer.c **** {
 769              		.loc 4 62 1 is_stmt 1 view -0
 770              		.cfi_startproc
 771              		@ args = 0, pretend = 0, frame = 0
 772              		@ frame_needed = 0, uses_anonymous_args = 0
 773              		.loc 4 62 1 is_stmt 0 view .LVU213
 774 0000 F8B5     		push	{r3, r4, r5, r6, r7, lr}
 775              	.LCFI10:
 776              		.cfi_def_cfa_offset 24
 777              		.cfi_offset 3, -24
 778              		.cfi_offset 4, -20
 779              		.cfi_offset 5, -16
 780              		.cfi_offset 6, -12
 781              		.cfi_offset 7, -8
 782              		.cfi_offset 14, -4
 783 0002 0746     		mov	r7, r0
 784 0004 0E46     		mov	r6, r1
 785 0006 1546     		mov	r5, r2
  63:Core/Src/USER/circular_buffer.c **** size_t i;
 786              		.loc 4 63 1 is_stmt 1 view .LVU214
  64:Core/Src/USER/circular_buffer.c **** for (i=0;i<len;i++){circle_push(c,b[i]);}
 787              		.loc 4 64 1 view .LVU215
 788              	.LVL27:
 789              		.loc 4 64 7 is_stmt 0 view .LVU216
 790 0008 0024     		movs	r4, #0
 791              		.loc 4 64 1 view .LVU217
 792 000a 04E0     		b	.L45
 793              	.LVL28:
 794              	.L46:
 795              		.loc 4 64 21 is_stmt 1 discriminator 3 view .LVU218
 796 000c 315D     		ldrb	r1, [r6, r4]	@ zero_extendqisi2
 797 000e 3846     		mov	r0, r7
ARM GAS  C:\Users\User\AppData\Local\Temp\ccEEhKx4.s 			page 30


 798 0010 FFF7FEFF 		bl	circle_push
 799              	.LVL29:
 800              		.loc 4 64 16 discriminator 3 view .LVU219
 801              		.loc 4 64 17 is_stmt 0 discriminator 3 view .LVU220
 802 0014 0134     		adds	r4, r4, #1
 803              	.LVL30:
 804              	.L45:
 805              		.loc 4 64 10 is_stmt 1 discriminator 1 view .LVU221
 806              		.loc 4 64 1 is_stmt 0 discriminator 1 view .LVU222
 807 0016 AC42     		cmp	r4, r5
 808 0018 F8D3     		bcc	.L46
  65:Core/Src/USER/circular_buffer.c **** }
 809              		.loc 4 65 1 view .LVU223
 810 001a F8BD     		pop	{r3, r4, r5, r6, r7, pc}
 811              		.loc 4 65 1 view .LVU224
 812              		.cfi_endproc
 813              	.LFE80:
 815              		.section	.text.circle_available,"ax",%progbits
 816              		.align	1
 817              		.global	circle_available
 818              		.syntax unified
 819              		.thumb
 820              		.thumb_func
 822              	circle_available:
 823              	.LVL31:
 824              	.LFB81:
  66:Core/Src/USER/circular_buffer.c **** 
  67:Core/Src/USER/circular_buffer.c **** size_t circle_available(CCBuf *c)
  68:Core/Src/USER/circular_buffer.c **** {
 825              		.loc 4 68 1 is_stmt 1 view -0
 826              		.cfi_startproc
 827              		@ args = 0, pretend = 0, frame = 0
 828              		@ frame_needed = 0, uses_anonymous_args = 0
 829              		@ link register save eliminated.
  69:Core/Src/USER/circular_buffer.c **** return c->count;
 830              		.loc 4 69 1 view .LVU226
  70:Core/Src/USER/circular_buffer.c **** }
 831              		.loc 4 70 1 is_stmt 0 view .LVU227
 832 0000 C068     		ldr	r0, [r0, #12]
 833              	.LVL32:
 834              		.loc 4 70 1 view .LVU228
 835 0002 7047     		bx	lr
 836              		.cfi_endproc
 837              	.LFE81:
 839              		.section	.text.circle_free,"ax",%progbits
 840              		.align	1
 841              		.global	circle_free
 842              		.syntax unified
 843              		.thumb
 844              		.thumb_func
 846              	circle_free:
 847              	.LVL33:
 848              	.LFB82:
  71:Core/Src/USER/circular_buffer.c **** size_t circle_free(CCBuf *c)
  72:Core/Src/USER/circular_buffer.c **** {
 849              		.loc 4 72 1 is_stmt 1 view -0
 850              		.cfi_startproc
ARM GAS  C:\Users\User\AppData\Local\Temp\ccEEhKx4.s 			page 31


 851              		@ args = 0, pretend = 0, frame = 0
 852              		@ frame_needed = 0, uses_anonymous_args = 0
 853              		@ link register save eliminated.
  73:Core/Src/USER/circular_buffer.c **** return c->max - c->count;
 854              		.loc 4 73 1 view .LVU230
 855              		.loc 4 73 9 is_stmt 0 view .LVU231
 856 0000 0269     		ldr	r2, [r0, #16]
 857              		.loc 4 73 18 view .LVU232
 858 0002 C068     		ldr	r0, [r0, #12]
 859              	.LVL34:
  74:Core/Src/USER/circular_buffer.c **** }
 860              		.loc 4 74 1 view .LVU233
 861 0004 101A     		subs	r0, r2, r0
 862 0006 7047     		bx	lr
 863              		.cfi_endproc
 864              	.LFE82:
 866              		.section	.text.getRotation,"ax",%progbits
 867              		.align	1
 868              		.global	getRotation
 869              		.syntax unified
 870              		.thumb
 871              		.thumb_func
 873              	getRotation:
 874              	.LFB83:
  87:Core/Src/USER/oled/ssd1306_oled_i2c.c **** 
 875              		.loc 1 87 33 is_stmt 1 view -0
 876              		.cfi_startproc
 877              		@ args = 0, pretend = 0, frame = 0
 878              		@ frame_needed = 0, uses_anonymous_args = 0
 879              		@ link register save eliminated.
  87:Core/Src/USER/oled/ssd1306_oled_i2c.c **** 
 880              		.loc 1 87 35 view .LVU235
  87:Core/Src/USER/oled/ssd1306_oled_i2c.c **** 
 881              		.loc 1 87 44 is_stmt 0 view .LVU236
 882 0000 0020     		movs	r0, #0
 883 0002 7047     		bx	lr
 884              		.cfi_endproc
 885              	.LFE83:
 887              		.section	.text.SSD1306_command1,"ax",%progbits
 888              		.align	1
 889              		.global	SSD1306_command1
 890              		.syntax unified
 891              		.thumb
 892              		.thumb_func
 894              	SSD1306_command1:
 895              	.LVL35:
 896              	.LFB84:
  93:Core/Src/USER/oled/ssd1306_oled_i2c.c **** unsigned char a[2];
 897              		.loc 1 93 1 is_stmt 1 view -0
 898              		.cfi_startproc
 899              		@ args = 0, pretend = 0, frame = 8
 900              		@ frame_needed = 0, uses_anonymous_args = 0
  93:Core/Src/USER/oled/ssd1306_oled_i2c.c **** unsigned char a[2];
 901              		.loc 1 93 1 is_stmt 0 view .LVU238
 902 0000 00B5     		push	{lr}
 903              	.LCFI11:
 904              		.cfi_def_cfa_offset 4
ARM GAS  C:\Users\User\AppData\Local\Temp\ccEEhKx4.s 			page 32


 905              		.cfi_offset 14, -4
 906 0002 85B0     		sub	sp, sp, #20
 907              	.LCFI12:
 908              		.cfi_def_cfa_offset 24
  94:Core/Src/USER/oled/ssd1306_oled_i2c.c **** 	a[0]=0; // DC=0, CO=0
 909              		.loc 1 94 1 is_stmt 1 view .LVU239
  95:Core/Src/USER/oled/ssd1306_oled_i2c.c **** 	a[1]=c;
 910              		.loc 1 95 2 view .LVU240
  95:Core/Src/USER/oled/ssd1306_oled_i2c.c **** 	a[1]=c;
 911              		.loc 1 95 6 is_stmt 0 view .LVU241
 912 0004 0023     		movs	r3, #0
 913 0006 8DF80C30 		strb	r3, [sp, #12]
  96:Core/Src/USER/oled/ssd1306_oled_i2c.c **** 	HAL_I2C_Master_Transmit(HI2C, SSD1306_ADR<<1, a, 2,SSD_MAX_DELAY);
 914              		.loc 1 96 2 is_stmt 1 view .LVU242
  96:Core/Src/USER/oled/ssd1306_oled_i2c.c **** 	HAL_I2C_Master_Transmit(HI2C, SSD1306_ADR<<1, a, 2,SSD_MAX_DELAY);
 915              		.loc 1 96 6 is_stmt 0 view .LVU243
 916 000a 8DF80D00 		strb	r0, [sp, #13]
  97:Core/Src/USER/oled/ssd1306_oled_i2c.c **** }
 917              		.loc 1 97 2 is_stmt 1 view .LVU244
 918 000e C823     		movs	r3, #200
 919 0010 0093     		str	r3, [sp]
 920 0012 0223     		movs	r3, #2
 921 0014 03AA     		add	r2, sp, #12
 922 0016 7821     		movs	r1, #120
 923 0018 0248     		ldr	r0, .L53
 924              	.LVL36:
  97:Core/Src/USER/oled/ssd1306_oled_i2c.c **** }
 925              		.loc 1 97 2 is_stmt 0 view .LVU245
 926 001a FFF7FEFF 		bl	HAL_I2C_Master_Transmit
 927              	.LVL37:
  98:Core/Src/USER/oled/ssd1306_oled_i2c.c **** 
 928              		.loc 1 98 1 view .LVU246
 929 001e 05B0     		add	sp, sp, #20
 930              	.LCFI13:
 931              		.cfi_def_cfa_offset 4
 932              		@ sp needed
 933 0020 5DF804FB 		ldr	pc, [sp], #4
 934              	.L54:
 935              		.align	2
 936              	.L53:
 937 0024 00000000 		.word	.LANCHOR0
 938              		.cfi_endproc
 939              	.LFE84:
 941              		.section	.text.SSD1306_sendbuffer,"ax",%progbits
 942              		.align	1
 943              		.global	SSD1306_sendbuffer
 944              		.syntax unified
 945              		.thumb
 946              		.thumb_func
 948              	SSD1306_sendbuffer:
 949              	.LVL38:
 950              	.LFB85:
 102:Core/Src/USER/oled/ssd1306_oled_i2c.c **** 	HAL_I2C_Master_Transmit(HI2C, SSD1306_ADR<<1, c, n,SSD_MAX_DELAY);
 951              		.loc 1 102 1 is_stmt 1 view -0
 952              		.cfi_startproc
 953              		@ args = 0, pretend = 0, frame = 0
 954              		@ frame_needed = 0, uses_anonymous_args = 0
ARM GAS  C:\Users\User\AppData\Local\Temp\ccEEhKx4.s 			page 33


 102:Core/Src/USER/oled/ssd1306_oled_i2c.c **** 	HAL_I2C_Master_Transmit(HI2C, SSD1306_ADR<<1, c, n,SSD_MAX_DELAY);
 955              		.loc 1 102 1 is_stmt 0 view .LVU248
 956 0000 00B5     		push	{lr}
 957              	.LCFI14:
 958              		.cfi_def_cfa_offset 4
 959              		.cfi_offset 14, -4
 960 0002 83B0     		sub	sp, sp, #12
 961              	.LCFI15:
 962              		.cfi_def_cfa_offset 16
 963 0004 0246     		mov	r2, r0
 964 0006 0B46     		mov	r3, r1
 103:Core/Src/USER/oled/ssd1306_oled_i2c.c **** }
 965              		.loc 1 103 2 is_stmt 1 view .LVU249
 966 0008 C821     		movs	r1, #200
 967              	.LVL39:
 103:Core/Src/USER/oled/ssd1306_oled_i2c.c **** }
 968              		.loc 1 103 2 is_stmt 0 view .LVU250
 969 000a 0091     		str	r1, [sp]
 970 000c 7821     		movs	r1, #120
 971 000e 0348     		ldr	r0, .L57
 972              	.LVL40:
 103:Core/Src/USER/oled/ssd1306_oled_i2c.c **** }
 973              		.loc 1 103 2 view .LVU251
 974 0010 FFF7FEFF 		bl	HAL_I2C_Master_Transmit
 975              	.LVL41:
 104:Core/Src/USER/oled/ssd1306_oled_i2c.c **** 
 976              		.loc 1 104 1 view .LVU252
 977 0014 03B0     		add	sp, sp, #12
 978              	.LCFI16:
 979              		.cfi_def_cfa_offset 4
 980              		@ sp needed
 981 0016 5DF804FB 		ldr	pc, [sp], #4
 982              	.L58:
 983 001a 00BF     		.align	2
 984              	.L57:
 985 001c 00000000 		.word	.LANCHOR0
 986              		.cfi_endproc
 987              	.LFE85:
 989              		.section	.text.SSD1306_write,"ax",%progbits
 990              		.align	1
 991              		.global	SSD1306_write
 992              		.syntax unified
 993              		.thumb
 994              		.thumb_func
 996              	SSD1306_write:
 997              	.LVL42:
 998              	.LFB86:
 108:Core/Src/USER/oled/ssd1306_oled_i2c.c **** unsigned char a[2];
 999              		.loc 1 108 1 is_stmt 1 view -0
 1000              		.cfi_startproc
 1001              		@ args = 0, pretend = 0, frame = 8
 1002              		@ frame_needed = 0, uses_anonymous_args = 0
 108:Core/Src/USER/oled/ssd1306_oled_i2c.c **** unsigned char a[2];
 1003              		.loc 1 108 1 is_stmt 0 view .LVU254
 1004 0000 00B5     		push	{lr}
 1005              	.LCFI17:
 1006              		.cfi_def_cfa_offset 4
ARM GAS  C:\Users\User\AppData\Local\Temp\ccEEhKx4.s 			page 34


 1007              		.cfi_offset 14, -4
 1008 0002 85B0     		sub	sp, sp, #20
 1009              	.LCFI18:
 1010              		.cfi_def_cfa_offset 24
 109:Core/Src/USER/oled/ssd1306_oled_i2c.c **** /* copypaste from datasheet:
 1011              		.loc 1 109 1 is_stmt 1 view .LVU255
 120:Core/Src/USER/oled/ssd1306_oled_i2c.c **** 	a[1]=data;
 1012              		.loc 1 120 2 view .LVU256
 120:Core/Src/USER/oled/ssd1306_oled_i2c.c **** 	a[1]=data;
 1013              		.loc 1 120 4 is_stmt 0 view .LVU257
 1014 0004 78B1     		cbz	r0, .L60
 120:Core/Src/USER/oled/ssd1306_oled_i2c.c **** 	a[1]=data;
 1015              		.loc 1 120 10 is_stmt 1 discriminator 1 view .LVU258
 120:Core/Src/USER/oled/ssd1306_oled_i2c.c **** 	a[1]=data;
 1016              		.loc 1 120 14 is_stmt 0 discriminator 1 view .LVU259
 1017 0006 4023     		movs	r3, #64
 1018 0008 8DF80C30 		strb	r3, [sp, #12]
 1019              	.L61:
 121:Core/Src/USER/oled/ssd1306_oled_i2c.c **** 	HAL_I2C_Master_Transmit(HI2C, SSD1306_ADR<<1, a, 2,SSD_MAX_DELAY);
 1020              		.loc 1 121 2 is_stmt 1 view .LVU260
 121:Core/Src/USER/oled/ssd1306_oled_i2c.c **** 	HAL_I2C_Master_Transmit(HI2C, SSD1306_ADR<<1, a, 2,SSD_MAX_DELAY);
 1021              		.loc 1 121 6 is_stmt 0 view .LVU261
 1022 000c 8DF80D10 		strb	r1, [sp, #13]
 122:Core/Src/USER/oled/ssd1306_oled_i2c.c **** }
 1023              		.loc 1 122 2 is_stmt 1 view .LVU262
 1024 0010 C823     		movs	r3, #200
 1025 0012 0093     		str	r3, [sp]
 1026 0014 0223     		movs	r3, #2
 1027 0016 03AA     		add	r2, sp, #12
 1028 0018 7821     		movs	r1, #120
 1029              	.LVL43:
 122:Core/Src/USER/oled/ssd1306_oled_i2c.c **** }
 1030              		.loc 1 122 2 is_stmt 0 view .LVU263
 1031 001a 0548     		ldr	r0, .L63
 1032              	.LVL44:
 122:Core/Src/USER/oled/ssd1306_oled_i2c.c **** }
 1033              		.loc 1 122 2 view .LVU264
 1034 001c FFF7FEFF 		bl	HAL_I2C_Master_Transmit
 1035              	.LVL45:
 123:Core/Src/USER/oled/ssd1306_oled_i2c.c **** static char SSD1306_present(void)
 1036              		.loc 1 123 1 view .LVU265
 1037 0020 05B0     		add	sp, sp, #20
 1038              	.LCFI19:
 1039              		.cfi_remember_state
 1040              		.cfi_def_cfa_offset 4
 1041              		@ sp needed
 1042 0022 5DF804FB 		ldr	pc, [sp], #4
 1043              	.LVL46:
 1044              	.L60:
 1045              	.LCFI20:
 1046              		.cfi_restore_state
 120:Core/Src/USER/oled/ssd1306_oled_i2c.c **** 	a[1]=data;
 1047              		.loc 1 120 34 is_stmt 1 discriminator 2 view .LVU266
 120:Core/Src/USER/oled/ssd1306_oled_i2c.c **** 	a[1]=data;
 1048              		.loc 1 120 38 is_stmt 0 discriminator 2 view .LVU267
 1049 0026 0023     		movs	r3, #0
 1050 0028 8DF80C30 		strb	r3, [sp, #12]
ARM GAS  C:\Users\User\AppData\Local\Temp\ccEEhKx4.s 			page 35


 1051 002c EEE7     		b	.L61
 1052              	.L64:
 1053 002e 00BF     		.align	2
 1054              	.L63:
 1055 0030 00000000 		.word	.LANCHOR0
 1056              		.cfi_endproc
 1057              	.LFE86:
 1059              		.section	.text.SSD1306_Init,"ax",%progbits
 1060              		.align	1
 1061              		.global	SSD1306_Init
 1062              		.syntax unified
 1063              		.thumb
 1064              		.thumb_func
 1066              	SSD1306_Init:
 1067              	.LFB88:
 129:Core/Src/USER/oled/ssd1306_oled_i2c.c **** /* ********* no more STM stuff bellow this line ****************************** */
 130:Core/Src/USER/oled/ssd1306_oled_i2c.c **** 
 131:Core/Src/USER/oled/ssd1306_oled_i2c.c **** 
 132:Core/Src/USER/oled/ssd1306_oled_i2c.c **** /* Init OLED screen */
 133:Core/Src/USER/oled/ssd1306_oled_i2c.c **** 
 134:Core/Src/USER/oled/ssd1306_oled_i2c.c **** 
 135:Core/Src/USER/oled/ssd1306_oled_i2c.c **** 
 136:Core/Src/USER/oled/ssd1306_oled_i2c.c **** char SSD1306_Init(void)
 137:Core/Src/USER/oled/ssd1306_oled_i2c.c **** {
 1068              		.loc 1 137 1 is_stmt 1 view -0
 1069              		.cfi_startproc
 1070              		@ args = 0, pretend = 0, frame = 0
 1071              		@ frame_needed = 0, uses_anonymous_args = 0
 1072 0000 08B5     		push	{r3, lr}
 1073              	.LCFI21:
 1074              		.cfi_def_cfa_offset 8
 1075              		.cfi_offset 3, -8
 1076              		.cfi_offset 14, -4
 138:Core/Src/USER/oled/ssd1306_oled_i2c.c **** SSD1306_command1(SSD1306_DISPLAYOFF);
 1077              		.loc 1 138 1 view .LVU269
 1078 0002 AE20     		movs	r0, #174
 1079 0004 FFF7FEFF 		bl	SSD1306_command1
 1080              	.LVL47:
 139:Core/Src/USER/oled/ssd1306_oled_i2c.c **** HAL_Delay(2000); //test on hardware
 1081              		.loc 1 139 1 view .LVU270
 1082 0008 4FF4FA60 		mov	r0, #2000
 1083 000c FFF7FEFF 		bl	HAL_Delay
 1084              	.LVL48:
 140:Core/Src/USER/oled/ssd1306_oled_i2c.c **** if(SSD1306_present()==0) {return 0;}
 1085              		.loc 1 140 1 view .LVU271
 1086              		.loc 1 140 4 is_stmt 0 view .LVU272
 1087 0010 FFF7FEFF 		bl	SSD1306_present
 1088              	.LVL49:
 1089              		.loc 1 140 3 view .LVU273
 1090 0014 00B9     		cbnz	r0, .L68
 1091              	.L66:
 141:Core/Src/USER/oled/ssd1306_oled_i2c.c **** 
 142:Core/Src/USER/oled/ssd1306_oled_i2c.c **** // Configurations are send to device in chunks of data. It is faster and smaller.
 143:Core/Src/USER/oled/ssd1306_oled_i2c.c **** // For final products (with static configuration) it is possible to set all config
 144:Core/Src/USER/oled/ssd1306_oled_i2c.c **** // in one array and send all data in one block.
 145:Core/Src/USER/oled/ssd1306_oled_i2c.c **** 
 146:Core/Src/USER/oled/ssd1306_oled_i2c.c **** static unsigned char init1[]= {0x00, // first byte command !
ARM GAS  C:\Users\User\AppData\Local\Temp\ccEEhKx4.s 			page 36


 147:Core/Src/USER/oled/ssd1306_oled_i2c.c **** 	SSD1306_DISPLAYOFF,
 148:Core/Src/USER/oled/ssd1306_oled_i2c.c **** 	SSD1306_SETDISPLAYCLOCKDIV,	0x80, //7:4 bitai-freq (default 0b1000). 3:0-div(1-16)
 149:Core/Src/USER/oled/ssd1306_oled_i2c.c **** 	SSD1306_SETMULTIPLEX, SSD1306_HEIGHT-1,  //
 150:Core/Src/USER/oled/ssd1306_oled_i2c.c **** 	SSD1306_SETDISPLAYOFFSET,             // 0xD3
 151:Core/Src/USER/oled/ssd1306_oled_i2c.c **** 	0x0,                                  // no offset
 152:Core/Src/USER/oled/ssd1306_oled_i2c.c **** 	SSD1306_SETSTARTLINE | 0x0,           // line #0
 153:Core/Src/USER/oled/ssd1306_oled_i2c.c **** 	SSD1306_CHARGEPUMP,CHRPUMP,           // 0x8D
 154:Core/Src/USER/oled/ssd1306_oled_i2c.c **** 
 155:Core/Src/USER/oled/ssd1306_oled_i2c.c **** 	SSD1306_MEMORYMODE,                   // 0x20
 156:Core/Src/USER/oled/ssd1306_oled_i2c.c **** 	0x00,                                 // 0x0 act like ks0108
 157:Core/Src/USER/oled/ssd1306_oled_i2c.c **** 	SSD1306_SEGREMAP | 0x1,
 158:Core/Src/USER/oled/ssd1306_oled_i2c.c **** 	SSD1306_COMSCANDEC,
 159:Core/Src/USER/oled/ssd1306_oled_i2c.c **** 
 160:Core/Src/USER/oled/ssd1306_oled_i2c.c **** 	SSD1306_SETCOMPINS,SSD_COMPINS,
 161:Core/Src/USER/oled/ssd1306_oled_i2c.c **** 	SSD1306_SETCONTRAST,SSD_CONTRAST,
 162:Core/Src/USER/oled/ssd1306_oled_i2c.c **** 	SSD1306_SETPRECHARGE,PRECHARGE, //((vccstate == SSD1306_EXTERNALVCC) ? 0x22 : 0xF1)};
 163:Core/Src/USER/oled/ssd1306_oled_i2c.c **** 
 164:Core/Src/USER/oled/ssd1306_oled_i2c.c **** 	SSD1306_SETVCOMDETECT,               // 0xDB
 165:Core/Src/USER/oled/ssd1306_oled_i2c.c **** 	0x40,
 166:Core/Src/USER/oled/ssd1306_oled_i2c.c **** 	SSD1306_DISPLAYALLON_RESUME,         // 0xA4
 167:Core/Src/USER/oled/ssd1306_oled_i2c.c **** 	SSD1306_NORMALDISPLAY,               // 0xA6
 168:Core/Src/USER/oled/ssd1306_oled_i2c.c **** 	SSD1306_DEACTIVATE_SCROLL,
 169:Core/Src/USER/oled/ssd1306_oled_i2c.c **** 	SSD1306_DISPLAYON };                 // Main screen turn on
 170:Core/Src/USER/oled/ssd1306_oled_i2c.c **** 	SSD1306_sendbuffer(init1, sizeof(init1));
 171:Core/Src/USER/oled/ssd1306_oled_i2c.c **** 
 172:Core/Src/USER/oled/ssd1306_oled_i2c.c **** return 1;
 173:Core/Src/USER/oled/ssd1306_oled_i2c.c **** }
 1092              		.loc 1 173 1 view .LVU274
 1093 0016 08BD     		pop	{r3, pc}
 1094              	.L68:
 146:Core/Src/USER/oled/ssd1306_oled_i2c.c **** 	SSD1306_DISPLAYOFF,
 1095              		.loc 1 146 1 is_stmt 1 view .LVU275
 170:Core/Src/USER/oled/ssd1306_oled_i2c.c **** 
 1096              		.loc 1 170 2 view .LVU276
 1097 0018 1B21     		movs	r1, #27
 1098 001a 0248     		ldr	r0, .L69
 1099 001c FFF7FEFF 		bl	SSD1306_sendbuffer
 1100              	.LVL50:
 172:Core/Src/USER/oled/ssd1306_oled_i2c.c **** }
 1101              		.loc 1 172 1 view .LVU277
 172:Core/Src/USER/oled/ssd1306_oled_i2c.c **** }
 1102              		.loc 1 172 8 is_stmt 0 view .LVU278
 1103 0020 0120     		movs	r0, #1
 1104 0022 F8E7     		b	.L66
 1105              	.L70:
 1106              		.align	2
 1107              	.L69:
 1108 0024 00000000 		.word	.LANCHOR4
 1109              		.cfi_endproc
 1110              	.LFE88:
 1112              		.section	.text.SSD1306_off,"ax",%progbits
 1113              		.align	1
 1114              		.global	SSD1306_off
 1115              		.syntax unified
 1116              		.thumb
 1117              		.thumb_func
 1119              	SSD1306_off:
ARM GAS  C:\Users\User\AppData\Local\Temp\ccEEhKx4.s 			page 37


 1120              	.LFB89:
 174:Core/Src/USER/oled/ssd1306_oled_i2c.c **** 
 175:Core/Src/USER/oled/ssd1306_oled_i2c.c **** /* small subroutines to make world brighter */
 176:Core/Src/USER/oled/ssd1306_oled_i2c.c **** void SSD1306_off(void){SSD1306_command1(SSD1306_DISPLAYOFF);}
 1121              		.loc 1 176 23 is_stmt 1 view -0
 1122              		.cfi_startproc
 1123              		@ args = 0, pretend = 0, frame = 0
 1124              		@ frame_needed = 0, uses_anonymous_args = 0
 1125 0000 08B5     		push	{r3, lr}
 1126              	.LCFI22:
 1127              		.cfi_def_cfa_offset 8
 1128              		.cfi_offset 3, -8
 1129              		.cfi_offset 14, -4
 1130              		.loc 1 176 24 view .LVU280
 1131 0002 AE20     		movs	r0, #174
 1132 0004 FFF7FEFF 		bl	SSD1306_command1
 1133              	.LVL51:
 1134              		.loc 1 176 61 is_stmt 0 view .LVU281
 1135 0008 08BD     		pop	{r3, pc}
 1136              		.cfi_endproc
 1137              	.LFE89:
 1139              		.section	.text.SSD1306_on,"ax",%progbits
 1140              		.align	1
 1141              		.global	SSD1306_on
 1142              		.syntax unified
 1143              		.thumb
 1144              		.thumb_func
 1146              	SSD1306_on:
 1147              	.LFB90:
 177:Core/Src/USER/oled/ssd1306_oled_i2c.c **** void SSD1306_on(void){SSD1306_command1(SSD1306_DISPLAYON);}
 1148              		.loc 1 177 22 is_stmt 1 view -0
 1149              		.cfi_startproc
 1150              		@ args = 0, pretend = 0, frame = 0
 1151              		@ frame_needed = 0, uses_anonymous_args = 0
 1152 0000 08B5     		push	{r3, lr}
 1153              	.LCFI23:
 1154              		.cfi_def_cfa_offset 8
 1155              		.cfi_offset 3, -8
 1156              		.cfi_offset 14, -4
 1157              		.loc 1 177 23 view .LVU283
 1158 0002 AF20     		movs	r0, #175
 1159 0004 FFF7FEFF 		bl	SSD1306_command1
 1160              	.LVL52:
 1161              		.loc 1 177 59 is_stmt 0 view .LVU284
 1162 0008 08BD     		pop	{r3, pc}
 1163              		.cfi_endproc
 1164              	.LFE90:
 1166              		.section	.text.SSD1306_invert,"ax",%progbits
 1167              		.align	1
 1168              		.global	SSD1306_invert
 1169              		.syntax unified
 1170              		.thumb
 1171              		.thumb_func
 1173              	SSD1306_invert:
 1174              	.LFB91:
 178:Core/Src/USER/oled/ssd1306_oled_i2c.c **** void SSD1306_invert(void){SSD1306_command1(SSD1306_INVERTDISPLAY);}
 1175              		.loc 1 178 26 is_stmt 1 view -0
ARM GAS  C:\Users\User\AppData\Local\Temp\ccEEhKx4.s 			page 38


 1176              		.cfi_startproc
 1177              		@ args = 0, pretend = 0, frame = 0
 1178              		@ frame_needed = 0, uses_anonymous_args = 0
 1179 0000 08B5     		push	{r3, lr}
 1180              	.LCFI24:
 1181              		.cfi_def_cfa_offset 8
 1182              		.cfi_offset 3, -8
 1183              		.cfi_offset 14, -4
 1184              		.loc 1 178 27 view .LVU286
 1185 0002 A720     		movs	r0, #167
 1186 0004 FFF7FEFF 		bl	SSD1306_command1
 1187              	.LVL53:
 1188              		.loc 1 178 67 is_stmt 0 view .LVU287
 1189 0008 08BD     		pop	{r3, pc}
 1190              		.cfi_endproc
 1191              	.LFE91:
 1193              		.section	.text.SSD1306_normal,"ax",%progbits
 1194              		.align	1
 1195              		.global	SSD1306_normal
 1196              		.syntax unified
 1197              		.thumb
 1198              		.thumb_func
 1200              	SSD1306_normal:
 1201              	.LFB92:
 179:Core/Src/USER/oled/ssd1306_oled_i2c.c **** void SSD1306_normal(void){SSD1306_command1(SSD1306_NORMALDISPLAY);}
 1202              		.loc 1 179 26 is_stmt 1 view -0
 1203              		.cfi_startproc
 1204              		@ args = 0, pretend = 0, frame = 0
 1205              		@ frame_needed = 0, uses_anonymous_args = 0
 1206 0000 08B5     		push	{r3, lr}
 1207              	.LCFI25:
 1208              		.cfi_def_cfa_offset 8
 1209              		.cfi_offset 3, -8
 1210              		.cfi_offset 14, -4
 1211              		.loc 1 179 27 view .LVU289
 1212 0002 A620     		movs	r0, #166
 1213 0004 FFF7FEFF 		bl	SSD1306_command1
 1214              	.LVL54:
 1215              		.loc 1 179 67 is_stmt 0 view .LVU290
 1216 0008 08BD     		pop	{r3, pc}
 1217              		.cfi_endproc
 1218              	.LFE92:
 1220              		.section	.text.SSD1306_flip,"ax",%progbits
 1221              		.align	1
 1222              		.global	SSD1306_flip
 1223              		.syntax unified
 1224              		.thumb
 1225              		.thumb_func
 1227              	SSD1306_flip:
 1228              	.LVL55:
 1229              	.LFB93:
 180:Core/Src/USER/oled/ssd1306_oled_i2c.c **** void SSD1306_flip(unsigned char m){SSD1306_command1((m==0)? SSD1306_COMSCANINC : SSD1306_COMSCANDEC
 1230              		.loc 1 180 35 is_stmt 1 view -0
 1231              		.cfi_startproc
 1232              		@ args = 0, pretend = 0, frame = 0
 1233              		@ frame_needed = 0, uses_anonymous_args = 0
 1234              		.loc 1 180 35 is_stmt 0 view .LVU292
ARM GAS  C:\Users\User\AppData\Local\Temp\ccEEhKx4.s 			page 39


 1235 0000 08B5     		push	{r3, lr}
 1236              	.LCFI26:
 1237              		.cfi_def_cfa_offset 8
 1238              		.cfi_offset 3, -8
 1239              		.cfi_offset 14, -4
 1240              		.loc 1 180 36 is_stmt 1 view .LVU293
 1241 0002 18B9     		cbnz	r0, .L81
 1242 0004 C020     		movs	r0, #192
 1243              	.LVL56:
 1244              	.L80:
 1245              		.loc 1 180 36 is_stmt 0 discriminator 4 view .LVU294
 1246 0006 FFF7FEFF 		bl	SSD1306_command1
 1247              	.LVL57:
 1248              		.loc 1 180 102 discriminator 4 view .LVU295
 1249 000a 08BD     		pop	{r3, pc}
 1250              	.LVL58:
 1251              	.L81:
 1252              		.loc 1 180 36 view .LVU296
 1253 000c C820     		movs	r0, #200
 1254              	.LVL59:
 1255              		.loc 1 180 36 view .LVU297
 1256 000e FAE7     		b	.L80
 1257              		.cfi_endproc
 1258              	.LFE93:
 1260              		.section	.text.SSD1306_set_addr_mode,"ax",%progbits
 1261              		.align	1
 1262              		.global	SSD1306_set_addr_mode
 1263              		.syntax unified
 1264              		.thumb
 1265              		.thumb_func
 1267              	SSD1306_set_addr_mode:
 1268              	.LVL60:
 1269              	.LFB94:
 181:Core/Src/USER/oled/ssd1306_oled_i2c.c **** 
 182:Core/Src/USER/oled/ssd1306_oled_i2c.c **** void SSD1306_set_addr_mode(uint8_t mode) {
 1270              		.loc 1 182 42 is_stmt 1 view -0
 1271              		.cfi_startproc
 1272              		@ args = 0, pretend = 0, frame = 8
 1273              		@ frame_needed = 0, uses_anonymous_args = 0
 1274              		.loc 1 182 42 is_stmt 0 view .LVU299
 1275 0000 00B5     		push	{lr}
 1276              	.LCFI27:
 1277              		.cfi_def_cfa_offset 4
 1278              		.cfi_offset 14, -4
 1279 0002 83B0     		sub	sp, sp, #12
 1280              	.LCFI28:
 1281              		.cfi_def_cfa_offset 16
 183:Core/Src/USER/oled/ssd1306_oled_i2c.c **** 	// 0 -> horizontal (write column, increment column pointer, at column overrun reset column pointer
 184:Core/Src/USER/oled/ssd1306_oled_i2c.c **** 	// 1 -> vertical (write column, increment page pointer, at page overrun reset page pointer and inc
 185:Core/Src/USER/oled/ssd1306_oled_i2c.c **** 	// 2 -> page (write column, increment column pointer, reset column pointer at overrun)
 186:Core/Src/USER/oled/ssd1306_oled_i2c.c **** 	unsigned char data[]={0,SSD1306_MEMORYMODE,((mode < 2) ? mode : 0)};
 1282              		.loc 1 186 2 is_stmt 1 view .LVU300
 1283              		.loc 1 186 16 is_stmt 0 view .LVU301
 1284 0004 0023     		movs	r3, #0
 1285 0006 8DF80430 		strb	r3, [sp, #4]
 1286 000a 2023     		movs	r3, #32
 1287 000c 8DF80530 		strb	r3, [sp, #5]
ARM GAS  C:\Users\User\AppData\Local\Temp\ccEEhKx4.s 			page 40


 1288 0010 0128     		cmp	r0, #1
 1289 0012 00D9     		bls	.L84
 1290 0014 0020     		movs	r0, #0
 1291              	.LVL61:
 1292              	.L84:
 1293              		.loc 1 186 16 discriminator 4 view .LVU302
 1294 0016 8DF80600 		strb	r0, [sp, #6]
 187:Core/Src/USER/oled/ssd1306_oled_i2c.c **** 	SSD1306_sendbuffer(data, sizeof(data));	
 1295              		.loc 1 187 2 is_stmt 1 discriminator 4 view .LVU303
 1296 001a 0321     		movs	r1, #3
 1297 001c 01A8     		add	r0, sp, #4
 1298 001e FFF7FEFF 		bl	SSD1306_sendbuffer
 1299              	.LVL62:
 188:Core/Src/USER/oled/ssd1306_oled_i2c.c **** }
 1300              		.loc 1 188 1 is_stmt 0 discriminator 4 view .LVU304
 1301 0022 03B0     		add	sp, sp, #12
 1302              	.LCFI29:
 1303              		.cfi_def_cfa_offset 4
 1304              		@ sp needed
 1305 0024 5DF804FB 		ldr	pc, [sp], #4
 1306              		.cfi_endproc
 1307              	.LFE94:
 1309              		.section	.text.SSD1306_scroll,"ax",%progbits
 1310              		.align	1
 1311              		.global	SSD1306_scroll
 1312              		.syntax unified
 1313              		.thumb
 1314              		.thumb_func
 1316              	SSD1306_scroll:
 1317              	.LVL63:
 1318              	.LFB95:
 189:Core/Src/USER/oled/ssd1306_oled_i2c.c **** void SSD1306_scroll(unsigned char n)
 190:Core/Src/USER/oled/ssd1306_oled_i2c.c **** {
 1319              		.loc 1 190 1 is_stmt 1 view -0
 1320              		.cfi_startproc
 1321              		@ args = 0, pretend = 0, frame = 8
 1322              		@ frame_needed = 0, uses_anonymous_args = 0
 1323              		.loc 1 190 1 is_stmt 0 view .LVU306
 1324 0000 00B5     		push	{lr}
 1325              	.LCFI30:
 1326              		.cfi_def_cfa_offset 4
 1327              		.cfi_offset 14, -4
 1328 0002 83B0     		sub	sp, sp, #12
 1329              	.LCFI31:
 1330              		.cfi_def_cfa_offset 16
 191:Core/Src/USER/oled/ssd1306_oled_i2c.c **** 	unsigned char data[]={0,SSD1306_SETDISPLAYOFFSET,n & 0b01111111};
 1331              		.loc 1 191 2 is_stmt 1 view .LVU307
 1332              		.loc 1 191 16 is_stmt 0 view .LVU308
 1333 0004 0023     		movs	r3, #0
 1334 0006 8DF80430 		strb	r3, [sp, #4]
 1335 000a D323     		movs	r3, #211
 1336 000c 8DF80530 		strb	r3, [sp, #5]
 1337              		.loc 1 191 53 view .LVU309
 1338 0010 00F07F00 		and	r0, r0, #127
 1339              	.LVL64:
 1340              		.loc 1 191 16 view .LVU310
 1341 0014 8DF80600 		strb	r0, [sp, #6]
ARM GAS  C:\Users\User\AppData\Local\Temp\ccEEhKx4.s 			page 41


 192:Core/Src/USER/oled/ssd1306_oled_i2c.c **** 	SSD1306_sendbuffer(data, sizeof(data));
 1342              		.loc 1 192 2 is_stmt 1 view .LVU311
 1343 0018 0321     		movs	r1, #3
 1344 001a 01A8     		add	r0, sp, #4
 1345 001c FFF7FEFF 		bl	SSD1306_sendbuffer
 1346              	.LVL65:
 193:Core/Src/USER/oled/ssd1306_oled_i2c.c **** }
 1347              		.loc 1 193 1 is_stmt 0 view .LVU312
 1348 0020 03B0     		add	sp, sp, #12
 1349              	.LCFI32:
 1350              		.cfi_def_cfa_offset 4
 1351              		@ sp needed
 1352 0022 5DF804FB 		ldr	pc, [sp], #4
 1353              		.cfi_endproc
 1354              	.LFE95:
 1356              		.section	.text.SSD1306_put_tile,"ax",%progbits
 1357              		.align	1
 1358              		.global	SSD1306_put_tile
 1359              		.syntax unified
 1360              		.thumb
 1361              		.thumb_func
 1363              	SSD1306_put_tile:
 1364              	.LVL66:
 1365              	.LFB96:
 194:Core/Src/USER/oled/ssd1306_oled_i2c.c **** /* send buffer to device. We need to add first "command/data" byte in the buffer.
 195:Core/Src/USER/oled/ssd1306_oled_i2c.c ****    This gives us all rush with allocation, copying and flushing memory. */
 196:Core/Src/USER/oled/ssd1306_oled_i2c.c **** void SSD1306_put_tile(uint8_t *tile, uint8_t limit) {
 1366              		.loc 1 196 53 is_stmt 1 view -0
 1367              		.cfi_startproc
 1368              		@ args = 0, pretend = 0, frame = 0
 1369              		@ frame_needed = 0, uses_anonymous_args = 0
 1370              		.loc 1 196 53 is_stmt 0 view .LVU314
 1371 0000 F8B5     		push	{r3, r4, r5, r6, r7, lr}
 1372              	.LCFI33:
 1373              		.cfi_def_cfa_offset 24
 1374              		.cfi_offset 3, -24
 1375              		.cfi_offset 4, -20
 1376              		.cfi_offset 5, -16
 1377              		.cfi_offset 6, -12
 1378              		.cfi_offset 7, -8
 1379              		.cfi_offset 14, -4
 1380 0002 0646     		mov	r6, r0
 1381 0004 0D46     		mov	r5, r1
 197:Core/Src/USER/oled/ssd1306_oled_i2c.c **** 	unsigned char *tempbuf=(unsigned char *) malloc(limit+1);
 1382              		.loc 1 197 2 is_stmt 1 view .LVU315
 1383              		.loc 1 197 55 is_stmt 0 view .LVU316
 1384 0006 4F1C     		adds	r7, r1, #1
 1385              		.loc 1 197 43 view .LVU317
 1386 0008 3846     		mov	r0, r7
 1387              	.LVL67:
 1388              		.loc 1 197 43 view .LVU318
 1389 000a FFF7FEFF 		bl	malloc
 1390              	.LVL68:
 1391              		.loc 1 197 43 view .LVU319
 1392 000e 0446     		mov	r4, r0
 1393              	.LVL69:
 198:Core/Src/USER/oled/ssd1306_oled_i2c.c **** 	memcpy(tempbuf+1,tile,limit); tempbuf[0]=0b01000000; //data mode
ARM GAS  C:\Users\User\AppData\Local\Temp\ccEEhKx4.s 			page 42


 1394              		.loc 1 198 2 is_stmt 1 view .LVU320
 1395 0010 2A46     		mov	r2, r5
 1396 0012 3146     		mov	r1, r6
 1397 0014 0130     		adds	r0, r0, #1
 1398              	.LVL70:
 1399              		.loc 1 198 2 is_stmt 0 view .LVU321
 1400 0016 FFF7FEFF 		bl	memcpy
 1401              	.LVL71:
 1402              		.loc 1 198 32 is_stmt 1 view .LVU322
 1403              		.loc 1 198 42 is_stmt 0 view .LVU323
 1404 001a 4023     		movs	r3, #64
 1405 001c 2370     		strb	r3, [r4]
 199:Core/Src/USER/oled/ssd1306_oled_i2c.c **** 	SSD1306_sendbuffer(tempbuf,limit+1);
 1406              		.loc 1 199 2 is_stmt 1 view .LVU324
 1407 001e F9B2     		uxtb	r1, r7
 1408 0020 2046     		mov	r0, r4
 1409 0022 FFF7FEFF 		bl	SSD1306_sendbuffer
 1410              	.LVL72:
 200:Core/Src/USER/oled/ssd1306_oled_i2c.c **** 	free(tempbuf);
 1411              		.loc 1 200 2 view .LVU325
 1412 0026 2046     		mov	r0, r4
 1413 0028 FFF7FEFF 		bl	free
 1414              	.LVL73:
 201:Core/Src/USER/oled/ssd1306_oled_i2c.c **** }
 1415              		.loc 1 201 1 is_stmt 0 view .LVU326
 1416 002c F8BD     		pop	{r3, r4, r5, r6, r7, pc}
 1417              		.loc 1 201 1 view .LVU327
 1418              		.cfi_endproc
 1419              	.LFE96:
 1421              		.section	.text.SSD1306_putc_raw,"ax",%progbits
 1422              		.align	1
 1423              		.global	SSD1306_putc_raw
 1424              		.syntax unified
 1425              		.thumb
 1426              		.thumb_func
 1428              	SSD1306_putc_raw:
 1429              	.LVL74:
 1430              	.LFB97:
 202:Core/Src/USER/oled/ssd1306_oled_i2c.c **** 
 203:Core/Src/USER/oled/ssd1306_oled_i2c.c **** /* print char (raw mode)-according font table */
 204:Core/Src/USER/oled/ssd1306_oled_i2c.c **** void SSD1306_putc_raw(char c) {
 1431              		.loc 1 204 31 is_stmt 1 view -0
 1432              		.cfi_startproc
 1433              		@ args = 0, pretend = 0, frame = 0
 1434              		@ frame_needed = 0, uses_anonymous_args = 0
 1435              		.loc 1 204 31 is_stmt 0 view .LVU329
 1436 0000 08B5     		push	{r3, lr}
 1437              	.LCFI34:
 1438              		.cfi_def_cfa_offset 8
 1439              		.cfi_offset 3, -8
 1440              		.cfi_offset 14, -4
 205:Core/Src/USER/oled/ssd1306_oled_i2c.c **** 	SSD1306_put_tile(font+(c<<3),8);
 1441              		.loc 1 205 2 is_stmt 1 view .LVU330
 1442 0002 0821     		movs	r1, #8
 1443 0004 024B     		ldr	r3, .L93
 1444 0006 03EBC000 		add	r0, r3, r0, lsl #3
 1445              	.LVL75:
ARM GAS  C:\Users\User\AppData\Local\Temp\ccEEhKx4.s 			page 43


 1446              		.loc 1 205 2 is_stmt 0 view .LVU331
 1447 000a FFF7FEFF 		bl	SSD1306_put_tile
 1448              	.LVL76:
 206:Core/Src/USER/oled/ssd1306_oled_i2c.c **** }
 1449              		.loc 1 206 1 view .LVU332
 1450 000e 08BD     		pop	{r3, pc}
 1451              	.L94:
 1452              		.align	2
 1453              	.L93:
 1454 0010 00000000 		.word	.LANCHOR5
 1455              		.cfi_endproc
 1456              	.LFE97:
 1458              		.section	.text.SSD1306_putc,"ax",%progbits
 1459              		.align	1
 1460              		.global	SSD1306_putc
 1461              		.syntax unified
 1462              		.thumb
 1463              		.thumb_func
 1465              	SSD1306_putc:
 1466              	.LVL77:
 1467              	.LFB98:
 207:Core/Src/USER/oled/ssd1306_oled_i2c.c **** 
 208:Core/Src/USER/oled/ssd1306_oled_i2c.c **** /* print char from ASCII */
 209:Core/Src/USER/oled/ssd1306_oled_i2c.c **** void SSD1306_putc(char c) {
 1468              		.loc 1 209 27 is_stmt 1 view -0
 1469              		.cfi_startproc
 1470              		@ args = 0, pretend = 0, frame = 0
 1471              		@ frame_needed = 0, uses_anonymous_args = 0
 1472              		.loc 1 209 27 is_stmt 0 view .LVU334
 1473 0000 08B5     		push	{r3, lr}
 1474              	.LCFI35:
 1475              		.cfi_def_cfa_offset 8
 1476              		.cfi_offset 3, -8
 1477              		.cfi_offset 14, -4
 210:Core/Src/USER/oled/ssd1306_oled_i2c.c **** 	// remap from petscii to ascii, shifts drawing characters into the lower 32 ascii cells
 211:Core/Src/USER/oled/ssd1306_oled_i2c.c **** 	if(c >= 'A' && c <= 'Z') { }               // upper-case ascii range
 1478              		.loc 1 211 2 is_stmt 1 view .LVU335
 1479              		.loc 1 211 14 is_stmt 0 view .LVU336
 1480 0002 A0F14103 		sub	r3, r0, #65
 1481 0006 DBB2     		uxtb	r3, r3
 1482              		.loc 1 211 4 view .LVU337
 1483 0008 192B     		cmp	r3, #25
 1484 000a 06D9     		bls	.L96
 212:Core/Src/USER/oled/ssd1306_oled_i2c.c **** 	else if(c >= 'a' && c <= 'z') { c -= 96; } // lower-case ascii range
 1485              		.loc 1 212 7 is_stmt 1 view .LVU338
 1486              		.loc 1 212 19 is_stmt 0 view .LVU339
 1487 000c A0F16103 		sub	r3, r0, #97
 1488 0010 DBB2     		uxtb	r3, r3
 1489              		.loc 1 212 9 view .LVU340
 1490 0012 192B     		cmp	r3, #25
 1491 0014 04D8     		bhi	.L97
 1492              		.loc 1 212 34 is_stmt 1 discriminator 1 view .LVU341
 1493              		.loc 1 212 36 is_stmt 0 discriminator 1 view .LVU342
 1494 0016 6038     		subs	r0, r0, #96
 1495              	.LVL78:
 1496              		.loc 1 212 36 discriminator 1 view .LVU343
 1497 0018 C0B2     		uxtb	r0, r0
ARM GAS  C:\Users\User\AppData\Local\Temp\ccEEhKx4.s 			page 44


 1498              	.LVL79:
 1499              	.L96:
 213:Core/Src/USER/oled/ssd1306_oled_i2c.c **** 	else if(c > 31 && c < 64) { }            // numbers and symbols
 214:Core/Src/USER/oled/ssd1306_oled_i2c.c **** 	else if(c < 32) { c += 96; }             // low ascii
 215:Core/Src/USER/oled/ssd1306_oled_i2c.c **** 	SSD1306_putc_raw(c);
 1500              		.loc 1 215 2 is_stmt 1 view .LVU344
 1501 001a FFF7FEFF 		bl	SSD1306_putc_raw
 1502              	.LVL80:
 216:Core/Src/USER/oled/ssd1306_oled_i2c.c **** }
 1503              		.loc 1 216 1 is_stmt 0 view .LVU345
 1504 001e 08BD     		pop	{r3, pc}
 1505              	.LVL81:
 1506              	.L97:
 213:Core/Src/USER/oled/ssd1306_oled_i2c.c **** 	else if(c > 31 && c < 64) { }            // numbers and symbols
 1507              		.loc 1 213 7 is_stmt 1 view .LVU346
 213:Core/Src/USER/oled/ssd1306_oled_i2c.c **** 	else if(c > 31 && c < 64) { }            // numbers and symbols
 1508              		.loc 1 213 17 is_stmt 0 view .LVU347
 1509 0020 A0F12003 		sub	r3, r0, #32
 1510 0024 DBB2     		uxtb	r3, r3
 213:Core/Src/USER/oled/ssd1306_oled_i2c.c **** 	else if(c > 31 && c < 64) { }            // numbers and symbols
 1511              		.loc 1 213 9 view .LVU348
 1512 0026 1F2B     		cmp	r3, #31
 1513 0028 F7D9     		bls	.L96
 214:Core/Src/USER/oled/ssd1306_oled_i2c.c **** 	SSD1306_putc_raw(c);
 1514              		.loc 1 214 7 is_stmt 1 view .LVU349
 214:Core/Src/USER/oled/ssd1306_oled_i2c.c **** 	SSD1306_putc_raw(c);
 1515              		.loc 1 214 9 is_stmt 0 view .LVU350
 1516 002a 1F28     		cmp	r0, #31
 1517 002c F5D8     		bhi	.L96
 214:Core/Src/USER/oled/ssd1306_oled_i2c.c **** 	SSD1306_putc_raw(c);
 1518              		.loc 1 214 20 is_stmt 1 discriminator 1 view .LVU351
 214:Core/Src/USER/oled/ssd1306_oled_i2c.c **** 	SSD1306_putc_raw(c);
 1519              		.loc 1 214 22 is_stmt 0 discriminator 1 view .LVU352
 1520 002e 6030     		adds	r0, r0, #96
 1521              	.LVL82:
 214:Core/Src/USER/oled/ssd1306_oled_i2c.c **** 	SSD1306_putc_raw(c);
 1522              		.loc 1 214 22 discriminator 1 view .LVU353
 1523 0030 C0B2     		uxtb	r0, r0
 1524              	.LVL83:
 214:Core/Src/USER/oled/ssd1306_oled_i2c.c **** 	SSD1306_putc_raw(c);
 1525              		.loc 1 214 22 discriminator 1 view .LVU354
 1526 0032 F2E7     		b	.L96
 1527              		.cfi_endproc
 1528              	.LFE98:
 1530              		.section	.text.SSD1306_move_raw,"ax",%progbits
 1531              		.align	1
 1532              		.global	SSD1306_move_raw
 1533              		.syntax unified
 1534              		.thumb
 1535              		.thumb_func
 1537              	SSD1306_move_raw:
 1538              	.LVL84:
 1539              	.LFB99:
 217:Core/Src/USER/oled/ssd1306_oled_i2c.c **** 
 218:Core/Src/USER/oled/ssd1306_oled_i2c.c **** /* move to position in pixels/bytes */
 219:Core/Src/USER/oled/ssd1306_oled_i2c.c **** void SSD1306_move_raw(uint8_t row, uint8_t col) {
 1540              		.loc 1 219 49 is_stmt 1 view -0
ARM GAS  C:\Users\User\AppData\Local\Temp\ccEEhKx4.s 			page 45


 1541              		.cfi_startproc
 1542              		@ args = 0, pretend = 0, frame = 8
 1543              		@ frame_needed = 0, uses_anonymous_args = 0
 1544              		.loc 1 219 49 is_stmt 0 view .LVU356
 1545 0000 00B5     		push	{lr}
 1546              	.LCFI36:
 1547              		.cfi_def_cfa_offset 4
 1548              		.cfi_offset 14, -4
 1549 0002 83B0     		sub	sp, sp, #12
 1550              	.LCFI37:
 1551              		.cfi_def_cfa_offset 16
 220:Core/Src/USER/oled/ssd1306_oled_i2c.c **** 	if(col > 127) { col = 127; }
 1552              		.loc 1 220 2 is_stmt 1 view .LVU357
 1553              		.loc 1 220 4 is_stmt 0 view .LVU358
 1554 0004 11F0800F 		tst	r1, #128
 1555 0008 1CD1     		bne	.L105
 1556              	.LVL85:
 1557              	.L100:
 221:Core/Src/USER/oled/ssd1306_oled_i2c.c **** 	if(row > 7) { row = 7; }
 1558              		.loc 1 221 2 is_stmt 1 view .LVU359
 1559              		.loc 1 221 4 is_stmt 0 view .LVU360
 1560 000a 0728     		cmp	r0, #7
 1561 000c 00D9     		bls	.L101
 1562              		.loc 1 221 20 view .LVU361
 1563 000e 0720     		movs	r0, #7
 1564              	.LVL86:
 1565              	.L101:
 222:Core/Src/USER/oled/ssd1306_oled_i2c.c **** 	unsigned char data[]={0,SSD1306_COLUMNADDR,col,0x7F,SSD1306_PAGEADDR,row,SSD_MAGIC};
 1566              		.loc 1 222 2 is_stmt 1 view .LVU362
 1567              		.loc 1 222 16 is_stmt 0 view .LVU363
 1568 0010 0023     		movs	r3, #0
 1569 0012 8DF80030 		strb	r3, [sp]
 1570 0016 2123     		movs	r3, #33
 1571 0018 8DF80130 		strb	r3, [sp, #1]
 1572 001c 8DF80210 		strb	r1, [sp, #2]
 1573 0020 7F23     		movs	r3, #127
 1574 0022 8DF80330 		strb	r3, [sp, #3]
 1575 0026 2223     		movs	r3, #34
 1576 0028 8DF80430 		strb	r3, [sp, #4]
 1577 002c 8DF80500 		strb	r0, [sp, #5]
 1578 0030 0323     		movs	r3, #3
 1579 0032 8DF80630 		strb	r3, [sp, #6]
 223:Core/Src/USER/oled/ssd1306_oled_i2c.c **** 	SSD1306_sendbuffer(data, sizeof(data));
 1580              		.loc 1 223 2 is_stmt 1 view .LVU364
 1581 0036 0721     		movs	r1, #7
 1582              	.LVL87:
 1583              		.loc 1 223 2 is_stmt 0 view .LVU365
 1584 0038 6846     		mov	r0, sp
 1585              	.LVL88:
 1586              		.loc 1 223 2 view .LVU366
 1587 003a FFF7FEFF 		bl	SSD1306_sendbuffer
 1588              	.LVL89:
 224:Core/Src/USER/oled/ssd1306_oled_i2c.c **** }
 1589              		.loc 1 224 1 view .LVU367
 1590 003e 03B0     		add	sp, sp, #12
 1591              	.LCFI38:
 1592              		.cfi_remember_state
ARM GAS  C:\Users\User\AppData\Local\Temp\ccEEhKx4.s 			page 46


 1593              		.cfi_def_cfa_offset 4
 1594              		@ sp needed
 1595 0040 5DF804FB 		ldr	pc, [sp], #4
 1596              	.LVL90:
 1597              	.L105:
 1598              	.LCFI39:
 1599              		.cfi_restore_state
 220:Core/Src/USER/oled/ssd1306_oled_i2c.c **** 	if(row > 7) { row = 7; }
 1600              		.loc 1 220 22 view .LVU368
 1601 0044 7F21     		movs	r1, #127
 1602              	.LVL91:
 220:Core/Src/USER/oled/ssd1306_oled_i2c.c **** 	if(row > 7) { row = 7; }
 1603              		.loc 1 220 22 view .LVU369
 1604 0046 E0E7     		b	.L100
 1605              		.cfi_endproc
 1606              	.LFE99:
 1608              		.section	.text.SSD1306_move,"ax",%progbits
 1609              		.align	1
 1610              		.global	SSD1306_move
 1611              		.syntax unified
 1612              		.thumb
 1613              		.thumb_func
 1615              	SSD1306_move:
 1616              	.LVL92:
 1617              	.LFB100:
 225:Core/Src/USER/oled/ssd1306_oled_i2c.c **** 
 226:Core/Src/USER/oled/ssd1306_oled_i2c.c **** /* move to position in char positions */
 227:Core/Src/USER/oled/ssd1306_oled_i2c.c **** void SSD1306_move(uint8_t row, uint8_t col) {
 1618              		.loc 1 227 45 is_stmt 1 view -0
 1619              		.cfi_startproc
 1620              		@ args = 0, pretend = 0, frame = 0
 1621              		@ frame_needed = 0, uses_anonymous_args = 0
 1622              		.loc 1 227 45 is_stmt 0 view .LVU371
 1623 0000 08B5     		push	{r3, lr}
 1624              	.LCFI40:
 1625              		.cfi_def_cfa_offset 8
 1626              		.cfi_offset 3, -8
 1627              		.cfi_offset 14, -4
 228:Core/Src/USER/oled/ssd1306_oled_i2c.c **** 	if(col > 15) { col = 15; }
 1628              		.loc 1 228 2 is_stmt 1 view .LVU372
 1629              		.loc 1 228 4 is_stmt 0 view .LVU373
 1630 0002 0F29     		cmp	r1, #15
 1631 0004 00D9     		bls	.L107
 1632              		.loc 1 228 21 view .LVU374
 1633 0006 0F21     		movs	r1, #15
 1634              	.LVL93:
 1635              	.L107:
 229:Core/Src/USER/oled/ssd1306_oled_i2c.c **** 	if(row > 7) { row = 7; }	
 1636              		.loc 1 229 2 is_stmt 1 view .LVU375
 1637              		.loc 1 229 4 is_stmt 0 view .LVU376
 1638 0008 0728     		cmp	r0, #7
 1639 000a 00D9     		bls	.L108
 1640              		.loc 1 229 20 view .LVU377
 1641 000c 0720     		movs	r0, #7
 1642              	.LVL94:
 1643              	.L108:
 230:Core/Src/USER/oled/ssd1306_oled_i2c.c **** 	SSD1306_move_raw(row, col << 3);
ARM GAS  C:\Users\User\AppData\Local\Temp\ccEEhKx4.s 			page 47


 1644              		.loc 1 230 2 is_stmt 1 view .LVU378
 1645 000e C900     		lsls	r1, r1, #3
 1646              	.LVL95:
 1647              		.loc 1 230 2 is_stmt 0 view .LVU379
 1648 0010 01F0F801 		and	r1, r1, #248
 1649 0014 FFF7FEFF 		bl	SSD1306_move_raw
 1650              	.LVL96:
 231:Core/Src/USER/oled/ssd1306_oled_i2c.c **** }
 1651              		.loc 1 231 1 view .LVU380
 1652 0018 08BD     		pop	{r3, pc}
 1653              		.cfi_endproc
 1654              	.LFE100:
 1656              		.section	.text.SSD1306_home,"ax",%progbits
 1657              		.align	1
 1658              		.global	SSD1306_home
 1659              		.syntax unified
 1660              		.thumb
 1661              		.thumb_func
 1663              	SSD1306_home:
 1664              	.LFB101:
 232:Core/Src/USER/oled/ssd1306_oled_i2c.c **** 
 233:Core/Src/USER/oled/ssd1306_oled_i2c.c **** /* move to "home" positions. Just make it easier to type */
 234:Core/Src/USER/oled/ssd1306_oled_i2c.c **** void SSD1306_home() {SSD1306_move_raw(0,0);}
 1665              		.loc 1 234 21 is_stmt 1 view -0
 1666              		.cfi_startproc
 1667              		@ args = 0, pretend = 0, frame = 0
 1668              		@ frame_needed = 0, uses_anonymous_args = 0
 1669 0000 08B5     		push	{r3, lr}
 1670              	.LCFI41:
 1671              		.cfi_def_cfa_offset 8
 1672              		.cfi_offset 3, -8
 1673              		.cfi_offset 14, -4
 1674              		.loc 1 234 22 view .LVU382
 1675 0002 0021     		movs	r1, #0
 1676 0004 0846     		mov	r0, r1
 1677 0006 FFF7FEFF 		bl	SSD1306_move_raw
 1678              	.LVL97:
 1679              		.loc 1 234 44 is_stmt 0 view .LVU383
 1680 000a 08BD     		pop	{r3, pc}
 1681              		.cfi_endproc
 1682              	.LFE101:
 1684              		.section	.text.SSD1306_clear,"ax",%progbits
 1685              		.align	1
 1686              		.global	SSD1306_clear
 1687              		.syntax unified
 1688              		.thumb
 1689              		.thumb_func
 1691              	SSD1306_clear:
 1692              	.LVL98:
 1693              	.LFB102:
 235:Core/Src/USER/oled/ssd1306_oled_i2c.c **** 
 236:Core/Src/USER/oled/ssd1306_oled_i2c.c **** /* clear screen/fill screen with byte pattern */
 237:Core/Src/USER/oled/ssd1306_oled_i2c.c **** void SSD1306_clear(unsigned char c) {
 1694              		.loc 1 237 37 is_stmt 1 view -0
 1695              		.cfi_startproc
 1696              		@ args = 0, pretend = 0, frame = 16
 1697              		@ frame_needed = 0, uses_anonymous_args = 0
ARM GAS  C:\Users\User\AppData\Local\Temp\ccEEhKx4.s 			page 48


 1698              		.loc 1 237 37 is_stmt 0 view .LVU385
 1699 0000 10B5     		push	{r4, lr}
 1700              	.LCFI42:
 1701              		.cfi_def_cfa_offset 8
 1702              		.cfi_offset 4, -8
 1703              		.cfi_offset 14, -4
 1704 0002 84B0     		sub	sp, sp, #16
 1705              	.LCFI43:
 1706              		.cfi_def_cfa_offset 24
 1707 0004 0446     		mov	r4, r0
 238:Core/Src/USER/oled/ssd1306_oled_i2c.c **** 	SSD1306_home();
 1708              		.loc 1 238 2 is_stmt 1 view .LVU386
 1709 0006 FFF7FEFF 		bl	SSD1306_home
 1710              	.LVL99:
 239:Core/Src/USER/oled/ssd1306_oled_i2c.c **** 	// just fill 128*64 pixels = 8192 bits = 1024bytes =1kb.
 240:Core/Src/USER/oled/ssd1306_oled_i2c.c **** 	// I do it in 8 bytes blocks= 128 times.
 241:Core/Src/USER/oled/ssd1306_oled_i2c.c **** unsigned char tmp[]={0b01000000,c,c,c,c,c,c,c,c};
 1711              		.loc 1 241 1 view .LVU387
 1712              		.loc 1 241 15 is_stmt 0 view .LVU388
 1713 000a 4023     		movs	r3, #64
 1714 000c 8DF80430 		strb	r3, [sp, #4]
 1715 0010 8DF80540 		strb	r4, [sp, #5]
 1716 0014 8DF80640 		strb	r4, [sp, #6]
 1717 0018 8DF80740 		strb	r4, [sp, #7]
 1718 001c 8DF80840 		strb	r4, [sp, #8]
 1719 0020 8DF80940 		strb	r4, [sp, #9]
 1720 0024 8DF80A40 		strb	r4, [sp, #10]
 1721 0028 8DF80B40 		strb	r4, [sp, #11]
 1722 002c 8DF80C40 		strb	r4, [sp, #12]
 242:Core/Src/USER/oled/ssd1306_oled_i2c.c **** 	for(uint8_t i = 128; i > 0; i--) {SSD1306_sendbuffer(tmp, sizeof(tmp));}
 1723              		.loc 1 242 2 is_stmt 1 view .LVU389
 1724              	.LBB28:
 1725              		.loc 1 242 6 view .LVU390
 1726              	.LVL100:
 1727              		.loc 1 242 14 is_stmt 0 view .LVU391
 1728 0030 8024     		movs	r4, #128
 1729              		.loc 1 242 2 view .LVU392
 1730 0032 05E0     		b	.L115
 1731              	.LVL101:
 1732              	.L116:
 1733              		.loc 1 242 36 is_stmt 1 discriminator 3 view .LVU393
 1734 0034 0921     		movs	r1, #9
 1735 0036 01A8     		add	r0, sp, #4
 1736 0038 FFF7FEFF 		bl	SSD1306_sendbuffer
 1737              	.LVL102:
 1738              		.loc 1 242 30 discriminator 3 view .LVU394
 1739              		.loc 1 242 31 is_stmt 0 discriminator 3 view .LVU395
 1740 003c 013C     		subs	r4, r4, #1
 1741              	.LVL103:
 1742              		.loc 1 242 31 discriminator 3 view .LVU396
 1743 003e E4B2     		uxtb	r4, r4
 1744              	.LVL104:
 1745              	.L115:
 1746              		.loc 1 242 23 is_stmt 1 discriminator 1 view .LVU397
 1747              		.loc 1 242 2 is_stmt 0 discriminator 1 view .LVU398
 1748 0040 002C     		cmp	r4, #0
 1749 0042 F7D1     		bne	.L116
ARM GAS  C:\Users\User\AppData\Local\Temp\ccEEhKx4.s 			page 49


 1750              	.LBE28:
 243:Core/Src/USER/oled/ssd1306_oled_i2c.c **** 	SSD1306_scroll(0);
 1751              		.loc 1 243 2 is_stmt 1 view .LVU399
 1752 0044 0020     		movs	r0, #0
 1753 0046 FFF7FEFF 		bl	SSD1306_scroll
 1754              	.LVL105:
 244:Core/Src/USER/oled/ssd1306_oled_i2c.c **** 	oled_line=0;
 1755              		.loc 1 244 2 view .LVU400
 1756              		.loc 1 244 11 is_stmt 0 view .LVU401
 1757 004a 024B     		ldr	r3, .L118
 1758 004c 0022     		movs	r2, #0
 1759 004e 1A70     		strb	r2, [r3]
 245:Core/Src/USER/oled/ssd1306_oled_i2c.c **** }
 1760              		.loc 1 245 1 view .LVU402
 1761 0050 04B0     		add	sp, sp, #16
 1762              	.LCFI44:
 1763              		.cfi_def_cfa_offset 8
 1764              		@ sp needed
 1765 0052 10BD     		pop	{r4, pc}
 1766              	.LVL106:
 1767              	.L119:
 1768              		.loc 1 245 1 view .LVU403
 1769              		.align	2
 1770              	.L118:
 1771 0054 00000000 		.word	.LANCHOR6
 1772              		.cfi_endproc
 1773              	.LFE102:
 1775              		.section	.text.SSD1306_fill,"ax",%progbits
 1776              		.align	1
 1777              		.global	SSD1306_fill
 1778              		.syntax unified
 1779              		.thumb
 1780              		.thumb_func
 1782              	SSD1306_fill:
 1783              	.LVL107:
 1784              	.LFB103:
 246:Core/Src/USER/oled/ssd1306_oled_i2c.c **** 
 247:Core/Src/USER/oled/ssd1306_oled_i2c.c **** /* I don't know what this is doint. Ask kmm */
 248:Core/Src/USER/oled/ssd1306_oled_i2c.c **** void SSD1306_fill(uint8_t row, uint8_t col, uint8_t count, uint8_t max, uint32_t pattern, int8_t ps
 1785              		.loc 1 248 106 is_stmt 1 view -0
 1786              		.cfi_startproc
 1787              		@ args = 8, pretend = 0, frame = 0
 1788              		@ frame_needed = 0, uses_anonymous_args = 0
 1789              		.loc 1 248 106 is_stmt 0 view .LVU405
 1790 0000 2DE9F047 		push	{r4, r5, r6, r7, r8, r9, r10, lr}
 1791              	.LCFI45:
 1792              		.cfi_def_cfa_offset 32
 1793              		.cfi_offset 4, -32
 1794              		.cfi_offset 5, -28
 1795              		.cfi_offset 6, -24
 1796              		.cfi_offset 7, -20
 1797              		.cfi_offset 8, -16
 1798              		.cfi_offset 9, -12
 1799              		.cfi_offset 10, -8
 1800              		.cfi_offset 14, -4
 1801 0004 1746     		mov	r7, r2
 1802 0006 1E46     		mov	r6, r3
ARM GAS  C:\Users\User\AppData\Local\Temp\ccEEhKx4.s 			page 50


 1803 0008 DDF82090 		ldr	r9, [sp, #32]
 1804 000c 9DF92480 		ldrsb	r8, [sp, #36]
 249:Core/Src/USER/oled/ssd1306_oled_i2c.c **** 	SSD1306_move(row, col);
 1805              		.loc 1 249 2 is_stmt 1 view .LVU406
 1806 0010 FFF7FEFF 		bl	SSD1306_move
 1807              	.LVL108:
 250:Core/Src/USER/oled/ssd1306_oled_i2c.c **** 	uint8_t pstate = 0;
 1808              		.loc 1 250 2 view .LVU407
 251:Core/Src/USER/oled/ssd1306_oled_i2c.c **** 	unsigned char i;
 1809              		.loc 1 251 2 view .LVU408
 252:Core/Src/USER/oled/ssd1306_oled_i2c.c **** 	for(i=max; i > 0; i--) {
 1810              		.loc 1 252 2 view .LVU409
 1811              		.loc 1 252 7 is_stmt 0 view .LVU410
 1812 0014 3546     		mov	r5, r6
 250:Core/Src/USER/oled/ssd1306_oled_i2c.c **** 	uint8_t pstate = 0;
 1813              		.loc 1 250 10 view .LVU411
 1814 0016 0024     		movs	r4, #0
 1815              		.loc 1 252 2 view .LVU412
 1816 0018 12E0     		b	.L121
 1817              	.LVL109:
 1818              	.L129:
 253:Core/Src/USER/oled/ssd1306_oled_i2c.c **** 		if(count > max) {
 254:Core/Src/USER/oled/ssd1306_oled_i2c.c **** 			if(pshift < 0) {
 255:Core/Src/USER/oled/ssd1306_oled_i2c.c **** 				SSD1306_write(1, (pattern >> (pstate++ << 3)) & 0xFF);
 1819              		.loc 1 255 5 is_stmt 1 view .LVU413
 1820              		.loc 1 255 41 is_stmt 0 view .LVU414
 1821 001a 04F1010A 		add	r10, r4, #1
 1822 001e 5FFA8AFA 		uxtb	r10, r10
 1823              	.LVL110:
 1824              		.loc 1 255 44 view .LVU415
 1825 0022 E100     		lsls	r1, r4, #3
 1826              		.loc 1 255 31 view .LVU416
 1827 0024 29FA01F1 		lsr	r1, r9, r1
 1828              		.loc 1 255 5 view .LVU417
 1829 0028 C9B2     		uxtb	r1, r1
 1830 002a 0120     		movs	r0, #1
 1831 002c FFF7FEFF 		bl	SSD1306_write
 1832              	.LVL111:
 1833              		.loc 1 255 41 view .LVU418
 1834 0030 5446     		mov	r4, r10
 1835 0032 18E0     		b	.L124
 1836              	.LVL112:
 1837              	.L122:
 256:Core/Src/USER/oled/ssd1306_oled_i2c.c **** 			} 
 257:Core/Src/USER/oled/ssd1306_oled_i2c.c **** 			else 
 258:Core/Src/USER/oled/ssd1306_oled_i2c.c **** 			{
 259:Core/Src/USER/oled/ssd1306_oled_i2c.c **** 				SSD1306_write(1, (pattern >> (pstate++ + pshift)) & 0xFF);
 260:Core/Src/USER/oled/ssd1306_oled_i2c.c **** 			}			
 261:Core/Src/USER/oled/ssd1306_oled_i2c.c **** 			pstate = (pstate > 3) ? 0 : pstate;
 262:Core/Src/USER/oled/ssd1306_oled_i2c.c **** 		}
 263:Core/Src/USER/oled/ssd1306_oled_i2c.c **** 		else {
 264:Core/Src/USER/oled/ssd1306_oled_i2c.c **** 			SSD1306_write(1, 0x00);
 1838              		.loc 1 264 4 is_stmt 1 view .LVU419
 1839 0034 0021     		movs	r1, #0
 1840 0036 0120     		movs	r0, #1
 1841 0038 FFF7FEFF 		bl	SSD1306_write
 1842              	.LVL113:
ARM GAS  C:\Users\User\AppData\Local\Temp\ccEEhKx4.s 			page 51


 1843              	.L125:
 252:Core/Src/USER/oled/ssd1306_oled_i2c.c **** 		if(count > max) {
 1844              		.loc 1 252 20 discriminator 2 view .LVU420
 252:Core/Src/USER/oled/ssd1306_oled_i2c.c **** 		if(count > max) {
 1845              		.loc 1 252 21 is_stmt 0 discriminator 2 view .LVU421
 1846 003c 691E     		subs	r1, r5, #1
 1847 003e CDB2     		uxtb	r5, r1
 1848              	.LVL114:
 1849              	.L121:
 252:Core/Src/USER/oled/ssd1306_oled_i2c.c **** 		if(count > max) {
 1850              		.loc 1 252 13 is_stmt 1 discriminator 1 view .LVU422
 252:Core/Src/USER/oled/ssd1306_oled_i2c.c **** 		if(count > max) {
 1851              		.loc 1 252 2 is_stmt 0 discriminator 1 view .LVU423
 1852 0040 ADB1     		cbz	r5, .L128
 253:Core/Src/USER/oled/ssd1306_oled_i2c.c **** 		if(count > max) {
 1853              		.loc 1 253 3 is_stmt 1 view .LVU424
 253:Core/Src/USER/oled/ssd1306_oled_i2c.c **** 		if(count > max) {
 1854              		.loc 1 253 5 is_stmt 0 view .LVU425
 1855 0042 BE42     		cmp	r6, r7
 1856 0044 F6D2     		bcs	.L122
 254:Core/Src/USER/oled/ssd1306_oled_i2c.c **** 				SSD1306_write(1, (pattern >> (pstate++ << 3)) & 0xFF);
 1857              		.loc 1 254 4 is_stmt 1 view .LVU426
 254:Core/Src/USER/oled/ssd1306_oled_i2c.c **** 				SSD1306_write(1, (pattern >> (pstate++ << 3)) & 0xFF);
 1858              		.loc 1 254 6 is_stmt 0 view .LVU427
 1859 0046 B8F1000F 		cmp	r8, #0
 1860 004a E6DB     		blt	.L129
 259:Core/Src/USER/oled/ssd1306_oled_i2c.c **** 			}			
 1861              		.loc 1 259 5 is_stmt 1 view .LVU428
 259:Core/Src/USER/oled/ssd1306_oled_i2c.c **** 			}			
 1862              		.loc 1 259 41 is_stmt 0 view .LVU429
 1863 004c 04F1010A 		add	r10, r4, #1
 1864 0050 5FFA8AFA 		uxtb	r10, r10
 1865              	.LVL115:
 259:Core/Src/USER/oled/ssd1306_oled_i2c.c **** 			}			
 1866              		.loc 1 259 44 view .LVU430
 1867 0054 08EB0401 		add	r1, r8, r4
 259:Core/Src/USER/oled/ssd1306_oled_i2c.c **** 			}			
 1868              		.loc 1 259 31 view .LVU431
 1869 0058 29FA01F1 		lsr	r1, r9, r1
 259:Core/Src/USER/oled/ssd1306_oled_i2c.c **** 			}			
 1870              		.loc 1 259 5 view .LVU432
 1871 005c C9B2     		uxtb	r1, r1
 1872 005e 0120     		movs	r0, #1
 1873 0060 FFF7FEFF 		bl	SSD1306_write
 1874              	.LVL116:
 259:Core/Src/USER/oled/ssd1306_oled_i2c.c **** 			}			
 1875              		.loc 1 259 41 view .LVU433
 1876 0064 5446     		mov	r4, r10
 1877              	.L124:
 1878              	.LVL117:
 261:Core/Src/USER/oled/ssd1306_oled_i2c.c **** 		}
 1879              		.loc 1 261 4 is_stmt 1 view .LVU434
 261:Core/Src/USER/oled/ssd1306_oled_i2c.c **** 		}
 1880              		.loc 1 261 11 is_stmt 0 view .LVU435
 1881 0066 032C     		cmp	r4, #3
 1882 0068 E8D9     		bls	.L125
 1883 006a 0024     		movs	r4, #0
ARM GAS  C:\Users\User\AppData\Local\Temp\ccEEhKx4.s 			page 52


 1884              	.LVL118:
 261:Core/Src/USER/oled/ssd1306_oled_i2c.c **** 		}
 1885              		.loc 1 261 11 view .LVU436
 1886 006c E6E7     		b	.L125
 1887              	.LVL119:
 1888              	.L128:
 265:Core/Src/USER/oled/ssd1306_oled_i2c.c **** 		}		
 266:Core/Src/USER/oled/ssd1306_oled_i2c.c **** 	}
 267:Core/Src/USER/oled/ssd1306_oled_i2c.c **** }
 1889              		.loc 1 267 1 view .LVU437
 1890 006e BDE8F087 		pop	{r4, r5, r6, r7, r8, r9, r10, pc}
 1891              		.loc 1 267 1 view .LVU438
 1892              		.cfi_endproc
 1893              	.LFE103:
 1895              		.section	.text.SSD1306_putxy,"ax",%progbits
 1896              		.align	1
 1897              		.global	SSD1306_putxy
 1898              		.syntax unified
 1899              		.thumb
 1900              		.thumb_func
 1902              	SSD1306_putxy:
 1903              	.LVL120:
 1904              	.LFB104:
 268:Core/Src/USER/oled/ssd1306_oled_i2c.c **** 
 269:Core/Src/USER/oled/ssd1306_oled_i2c.c **** 
 270:Core/Src/USER/oled/ssd1306_oled_i2c.c **** // Draw a tile at an arbitrary pixel location (top, left) using an 8 byte tile buffer referenced by
 271:Core/Src/USER/oled/ssd1306_oled_i2c.c **** // Slower than oled_putc(), potentially substantially so; only use for things that need
 272:Core/Src/USER/oled/ssd1306_oled_i2c.c **** // finer grained positioning than is possible with tile cells, like sprites.
 273:Core/Src/USER/oled/ssd1306_oled_i2c.c **** // Clips right and bottom edges properly; untested and not expected to work with negative positions
 274:Core/Src/USER/oled/ssd1306_oled_i2c.c **** void SSD1306_putxy(uint8_t left_pxl, uint8_t top_pxl, uint8_t *tile) {
 1905              		.loc 1 274 70 is_stmt 1 view -0
 1906              		.cfi_startproc
 1907              		@ args = 0, pretend = 0, frame = 16
 1908              		@ frame_needed = 0, uses_anonymous_args = 0
 1909              		.loc 1 274 70 is_stmt 0 view .LVU440
 1910 0000 F0B5     		push	{r4, r5, r6, r7, lr}
 1911              	.LCFI46:
 1912              		.cfi_def_cfa_offset 20
 1913              		.cfi_offset 4, -20
 1914              		.cfi_offset 5, -16
 1915              		.cfi_offset 6, -12
 1916              		.cfi_offset 7, -8
 1917              		.cfi_offset 14, -4
 1918 0002 85B0     		sub	sp, sp, #20
 1919              	.LCFI47:
 1920              		.cfi_def_cfa_offset 40
 1921 0004 0546     		mov	r5, r0
 1922 0006 0E46     		mov	r6, r1
 275:Core/Src/USER/oled/ssd1306_oled_i2c.c **** 	uint8_t tbuf[8], obuf[8];
 1923              		.loc 1 275 2 is_stmt 1 view .LVU441
 276:Core/Src/USER/oled/ssd1306_oled_i2c.c **** 	uint8_t top_cell = top_pxl >> 3;
 1924              		.loc 1 276 2 view .LVU442
 1925              		.loc 1 276 10 is_stmt 0 view .LVU443
 1926 0008 CF08     		lsrs	r7, r1, #3
 1927              	.LVL121:
 277:Core/Src/USER/oled/ssd1306_oled_i2c.c **** 	uint8_t left_cell = left_pxl >> 3;
 1928              		.loc 1 277 2 is_stmt 1 view .LVU444
ARM GAS  C:\Users\User\AppData\Local\Temp\ccEEhKx4.s 			page 53


 278:Core/Src/USER/oled/ssd1306_oled_i2c.c **** 	int8_t voff = top_pxl - ((top_cell << 3) - 1);
 1929              		.loc 1 278 2 view .LVU445
 1930              		.loc 1 278 24 is_stmt 0 view .LVU446
 1931 000a 01F00700 		and	r0, r1, #7
 1932              	.LVL122:
 279:Core/Src/USER/oled/ssd1306_oled_i2c.c **** 	int8_t hoff = left_pxl - ((left_cell << 3) - 1);
 1933              		.loc 1 279 2 is_stmt 1 view .LVU447
 1934              		.loc 1 279 25 is_stmt 0 view .LVU448
 1935 000e 05F00704 		and	r4, r5, #7
 1936 0012 0134     		adds	r4, r4, #1
 1937              	.LVL123:
 280:Core/Src/USER/oled/ssd1306_oled_i2c.c **** 	
 281:Core/Src/USER/oled/ssd1306_oled_i2c.c **** 	if(voff == 0 && hoff == 0) {
 1938              		.loc 1 281 2 is_stmt 1 view .LVU449
 1939              		.loc 1 281 4 is_stmt 0 view .LVU450
 1940 0014 0130     		adds	r0, r0, #1
 1941              	.LVL124:
 1942              		.loc 1 281 4 view .LVU451
 1943 0016 0023     		movs	r3, #0
 1944 0018 10E0     		b	.L133
 1945              	.LVL125:
 1946              	.L134:
 1947              	.LBB29:
 282:Core/Src/USER/oled/ssd1306_oled_i2c.c **** 		SSD1306_move(top_cell, left_pxl >> 3);
 283:Core/Src/USER/oled/ssd1306_oled_i2c.c **** 		SSD1306_put_tile(tile, 8);
 284:Core/Src/USER/oled/ssd1306_oled_i2c.c **** 		return;
 285:Core/Src/USER/oled/ssd1306_oled_i2c.c **** 	}
 286:Core/Src/USER/oled/ssd1306_oled_i2c.c **** 	else {
 287:Core/Src/USER/oled/ssd1306_oled_i2c.c **** 		for(uint8_t tcol = 0; tcol < 8; tcol++) { // tile column
 288:Core/Src/USER/oled/ssd1306_oled_i2c.c **** 			tbuf[tcol] = (tile[tcol]) << ((uint8_t)voff); // shift left (down) by voff
 1948              		.loc 1 288 4 is_stmt 1 discriminator 3 view .LVU452
 1949              		.loc 1 288 22 is_stmt 0 discriminator 3 view .LVU453
 1950 001a 12F803C0 		ldrb	ip, [r2, r3]	@ zero_extendqisi2
 1951              		.loc 1 288 30 discriminator 3 view .LVU454
 1952 001e 0CFA00FE 		lsl	lr, ip, r0
 1953              		.loc 1 288 15 discriminator 3 view .LVU455
 1954 0022 03F11001 		add	r1, r3, #16
 1955 0026 6944     		add	r1, sp, r1
 1956 0028 01F808EC 		strb	lr, [r1, #-8]
 289:Core/Src/USER/oled/ssd1306_oled_i2c.c **** 			obuf[tcol] = (tile[tcol]) >> (8 - (uint8_t)voff); //shift right (up) by voff
 1957              		.loc 1 289 4 is_stmt 1 discriminator 3 view .LVU456
 1958              		.loc 1 289 36 is_stmt 0 discriminator 3 view .LVU457
 1959 002c C0F1080E 		rsb	lr, r0, #8
 1960              		.loc 1 289 30 discriminator 3 view .LVU458
 1961 0030 4CFA0EFC 		asr	ip, ip, lr
 1962              		.loc 1 289 15 discriminator 3 view .LVU459
 1963 0034 01F810CC 		strb	ip, [r1, #-16]
 287:Core/Src/USER/oled/ssd1306_oled_i2c.c **** 			tbuf[tcol] = (tile[tcol]) << ((uint8_t)voff); // shift left (down) by voff
 1964              		.loc 1 287 35 is_stmt 1 discriminator 3 view .LVU460
 287:Core/Src/USER/oled/ssd1306_oled_i2c.c **** 			tbuf[tcol] = (tile[tcol]) << ((uint8_t)voff); // shift left (down) by voff
 1965              		.loc 1 287 39 is_stmt 0 discriminator 3 view .LVU461
 1966 0038 0133     		adds	r3, r3, #1
 1967              	.LVL126:
 287:Core/Src/USER/oled/ssd1306_oled_i2c.c **** 			tbuf[tcol] = (tile[tcol]) << ((uint8_t)voff); // shift left (down) by voff
 1968              		.loc 1 287 39 discriminator 3 view .LVU462
 1969 003a DBB2     		uxtb	r3, r3
 1970              	.LVL127:
ARM GAS  C:\Users\User\AppData\Local\Temp\ccEEhKx4.s 			page 54


 1971              	.L133:
 287:Core/Src/USER/oled/ssd1306_oled_i2c.c **** 			tbuf[tcol] = (tile[tcol]) << ((uint8_t)voff); // shift left (down) by voff
 1972              		.loc 1 287 25 is_stmt 1 discriminator 1 view .LVU463
 287:Core/Src/USER/oled/ssd1306_oled_i2c.c **** 			tbuf[tcol] = (tile[tcol]) << ((uint8_t)voff); // shift left (down) by voff
 1973              		.loc 1 287 3 is_stmt 0 discriminator 1 view .LVU464
 1974 003c 072B     		cmp	r3, #7
 1975 003e ECD9     		bls	.L134
 1976              	.LBE29:
 290:Core/Src/USER/oled/ssd1306_oled_i2c.c **** 		}
 291:Core/Src/USER/oled/ssd1306_oled_i2c.c **** 		
 292:Core/Src/USER/oled/ssd1306_oled_i2c.c **** 		SSD1306_move_raw(top_cell, left_pxl); // move_raw(row[0:7], column[0:127]) rows and pixels for ex
 1977              		.loc 1 292 3 is_stmt 1 view .LVU465
 1978 0040 2946     		mov	r1, r5
 1979 0042 3846     		mov	r0, r7
 1980              	.LVL128:
 1981              		.loc 1 292 3 is_stmt 0 view .LVU466
 1982 0044 FFF7FEFF 		bl	SSD1306_move_raw
 1983              	.LVL129:
 293:Core/Src/USER/oled/ssd1306_oled_i2c.c **** 		SSD1306_put_tile(tbuf, (left_pxl > (SSD1306_WIDTH - 8)) ? 8 - hoff : 8);
 1984              		.loc 1 293 3 is_stmt 1 view .LVU467
 1985 0048 782D     		cmp	r5, #120
 1986 004a 0AD9     		bls	.L139
 1987              		.loc 1 293 3 is_stmt 0 discriminator 1 view .LVU468
 1988 004c C4F10804 		rsb	r4, r4, #8
 1989              	.LVL130:
 1990              		.loc 1 293 3 discriminator 1 view .LVU469
 1991 0050 E4B2     		uxtb	r4, r4
 1992              	.L135:
 1993              		.loc 1 293 3 discriminator 4 view .LVU470
 1994 0052 2146     		mov	r1, r4
 1995 0054 02A8     		add	r0, sp, #8
 1996 0056 FFF7FEFF 		bl	SSD1306_put_tile
 1997              	.LVL131:
 294:Core/Src/USER/oled/ssd1306_oled_i2c.c **** 		if(top_pxl < (SSD1306_HEIGHT - 8)) {
 1998              		.loc 1 294 3 is_stmt 1 discriminator 4 view .LVU471
 1999              		.loc 1 294 5 is_stmt 0 discriminator 4 view .LVU472
 2000 005a 172E     		cmp	r6, #23
 2001 005c 03D9     		bls	.L141
 2002              	.L130:
 295:Core/Src/USER/oled/ssd1306_oled_i2c.c **** 			SSD1306_move_raw((top_cell + 1), left_pxl);
 296:Core/Src/USER/oled/ssd1306_oled_i2c.c **** 			SSD1306_put_tile(obuf, (left_pxl > (SSD1306_WIDTH - 8)) ? 8 - hoff : 8);
 297:Core/Src/USER/oled/ssd1306_oled_i2c.c **** 		}		
 298:Core/Src/USER/oled/ssd1306_oled_i2c.c **** 	}	
 299:Core/Src/USER/oled/ssd1306_oled_i2c.c **** }
 2003              		.loc 1 299 1 view .LVU473
 2004 005e 05B0     		add	sp, sp, #20
 2005              	.LCFI48:
 2006              		.cfi_remember_state
 2007              		.cfi_def_cfa_offset 20
 2008              		@ sp needed
 2009 0060 F0BD     		pop	{r4, r5, r6, r7, pc}
 2010              	.LVL132:
 2011              	.L139:
 2012              	.LCFI49:
 2013              		.cfi_restore_state
 293:Core/Src/USER/oled/ssd1306_oled_i2c.c **** 		if(top_pxl < (SSD1306_HEIGHT - 8)) {
 2014              		.loc 1 293 3 view .LVU474
ARM GAS  C:\Users\User\AppData\Local\Temp\ccEEhKx4.s 			page 55


 2015 0062 0824     		movs	r4, #8
 2016              	.LVL133:
 293:Core/Src/USER/oled/ssd1306_oled_i2c.c **** 		if(top_pxl < (SSD1306_HEIGHT - 8)) {
 2017              		.loc 1 293 3 view .LVU475
 2018 0064 F5E7     		b	.L135
 2019              	.L141:
 295:Core/Src/USER/oled/ssd1306_oled_i2c.c **** 			SSD1306_move_raw((top_cell + 1), left_pxl);
 2020              		.loc 1 295 4 is_stmt 1 view .LVU476
 2021 0066 2946     		mov	r1, r5
 2022 0068 781C     		adds	r0, r7, #1
 2023 006a FFF7FEFF 		bl	SSD1306_move_raw
 2024              	.LVL134:
 296:Core/Src/USER/oled/ssd1306_oled_i2c.c **** 		}		
 2025              		.loc 1 296 4 view .LVU477
 2026 006e 2146     		mov	r1, r4
 2027 0070 6846     		mov	r0, sp
 2028 0072 FFF7FEFF 		bl	SSD1306_put_tile
 2029              	.LVL135:
 2030 0076 F2E7     		b	.L130
 2031              		.cfi_endproc
 2032              	.LFE104:
 2034              		.section	.text.SSD1306_puts,"ax",%progbits
 2035              		.align	1
 2036              		.global	SSD1306_puts
 2037              		.syntax unified
 2038              		.thumb
 2039              		.thumb_func
 2041              	SSD1306_puts:
 2042              	.LVL136:
 2043              	.LFB105:
 300:Core/Src/USER/oled/ssd1306_oled_i2c.c **** 
 301:Core/Src/USER/oled/ssd1306_oled_i2c.c **** /* print string at current position */
 302:Core/Src/USER/oled/ssd1306_oled_i2c.c **** void SSD1306_puts(char *str) {
 2044              		.loc 1 302 30 view -0
 2045              		.cfi_startproc
 2046              		@ args = 0, pretend = 0, frame = 0
 2047              		@ frame_needed = 0, uses_anonymous_args = 0
 2048              		.loc 1 302 30 is_stmt 0 view .LVU479
 2049 0000 10B5     		push	{r4, lr}
 2050              	.LCFI50:
 2051              		.cfi_def_cfa_offset 8
 2052              		.cfi_offset 4, -8
 2053              		.cfi_offset 14, -4
 2054 0002 0446     		mov	r4, r0
 303:Core/Src/USER/oled/ssd1306_oled_i2c.c **** 	while(*str != 0) {
 2055              		.loc 1 303 2 is_stmt 1 view .LVU480
 2056              		.loc 1 303 7 is_stmt 0 view .LVU481
 2057 0004 02E0     		b	.L143
 2058              	.LVL137:
 2059              	.L144:
 304:Core/Src/USER/oled/ssd1306_oled_i2c.c **** 		SSD1306_putc(*str++);
 2060              		.loc 1 304 3 is_stmt 1 view .LVU482
 2061              		.loc 1 304 20 is_stmt 0 view .LVU483
 2062 0006 0134     		adds	r4, r4, #1
 2063              	.LVL138:
 2064              		.loc 1 304 3 view .LVU484
 2065 0008 FFF7FEFF 		bl	SSD1306_putc
ARM GAS  C:\Users\User\AppData\Local\Temp\ccEEhKx4.s 			page 56


 2066              	.LVL139:
 2067              	.L143:
 303:Core/Src/USER/oled/ssd1306_oled_i2c.c **** 	while(*str != 0) {
 2068              		.loc 1 303 7 is_stmt 1 view .LVU485
 303:Core/Src/USER/oled/ssd1306_oled_i2c.c **** 	while(*str != 0) {
 2069              		.loc 1 303 8 is_stmt 0 view .LVU486
 2070 000c 2078     		ldrb	r0, [r4]	@ zero_extendqisi2
 303:Core/Src/USER/oled/ssd1306_oled_i2c.c **** 	while(*str != 0) {
 2071              		.loc 1 303 7 view .LVU487
 2072 000e 0028     		cmp	r0, #0
 2073 0010 F9D1     		bne	.L144
 305:Core/Src/USER/oled/ssd1306_oled_i2c.c **** 	}
 306:Core/Src/USER/oled/ssd1306_oled_i2c.c **** }
 2074              		.loc 1 306 1 view .LVU488
 2075 0012 10BD     		pop	{r4, pc}
 2076              		.loc 1 306 1 view .LVU489
 2077              		.cfi_endproc
 2078              	.LFE105:
 2080              		.section	.text.SSD1306_bigdigit,"ax",%progbits
 2081              		.align	1
 2082              		.global	SSD1306_bigdigit
 2083              		.syntax unified
 2084              		.thumb
 2085              		.thumb_func
 2087              	SSD1306_bigdigit:
 2088              	.LVL140:
 2089              	.LFB106:
 307:Core/Src/USER/oled/ssd1306_oled_i2c.c **** 
 308:Core/Src/USER/oled/ssd1306_oled_i2c.c **** // print bigger digits using Commodore 64 symbols.
 309:Core/Src/USER/oled/ssd1306_oled_i2c.c **** // box graphics digit (a single digit, not byte or word; use this to render output of an int->bcd c
 310:Core/Src/USER/oled/ssd1306_oled_i2c.c **** 	const uint8_t chartable[]  = { 0x10, 0x0E, 0x5D, 0x5D, 0x0D, 0x1D, // zero
 311:Core/Src/USER/oled/ssd1306_oled_i2c.c **** 							              0x20, 0x0E, 0x20, 0x5D, 0x20, 0x11, // one
 312:Core/Src/USER/oled/ssd1306_oled_i2c.c **** 		                                  0x10, 0x0E, 0x10, 0x1D, 0x0D, 0x1D, // two
 313:Core/Src/USER/oled/ssd1306_oled_i2c.c **** 							              0x10, 0x0E, 0x20, 0x13, 0x0D, 0x1D, // three
 314:Core/Src/USER/oled/ssd1306_oled_i2c.c **** 							              0x5F, 0x5F, 0x0D, 0x13, 0x20, 0x5E, // four
 315:Core/Src/USER/oled/ssd1306_oled_i2c.c **** 							              0x10, 0x0E, 0x0D, 0x0E, 0x0D, 0x1D, // five
 316:Core/Src/USER/oled/ssd1306_oled_i2c.c **** 							              0x10, 0x0E, 0x0B, 0x0E, 0x0D, 0x1D, // six
 317:Core/Src/USER/oled/ssd1306_oled_i2c.c **** 							              0x10, 0x0E, 0x20, 0x5B, 0x20, 0x5E, // seven
 318:Core/Src/USER/oled/ssd1306_oled_i2c.c **** 							              0x10, 0x0E, 0x0B, 0x13, 0x0D, 0x1D, // eight
 319:Core/Src/USER/oled/ssd1306_oled_i2c.c **** 							              0x10, 0x0E, 0x0d, 0x13, 0x0D, 0x1D  // nine
 320:Core/Src/USER/oled/ssd1306_oled_i2c.c **** 						                };
 321:Core/Src/USER/oled/ssd1306_oled_i2c.c **** void SSD1306_bigdigit(uint8_t top, uint8_t left, uint8_t num) {
 2090              		.loc 1 321 63 is_stmt 1 view -0
 2091              		.cfi_startproc
 2092              		@ args = 0, pretend = 0, frame = 0
 2093              		@ frame_needed = 0, uses_anonymous_args = 0
 322:Core/Src/USER/oled/ssd1306_oled_i2c.c **** 	if(num > 9) { return; }
 2094              		.loc 1 322 2 view .LVU491
 2095              		.loc 1 322 4 is_stmt 0 view .LVU492
 2096 0000 092A     		cmp	r2, #9
 2097 0002 00D9     		bls	.L156
 2098 0004 7047     		bx	lr
 2099              	.L156:
 321:Core/Src/USER/oled/ssd1306_oled_i2c.c **** 	if(num > 9) { return; }
 2100              		.loc 1 321 63 view .LVU493
 2101 0006 F8B5     		push	{r3, r4, r5, r6, r7, lr}
 2102              	.LCFI51:
ARM GAS  C:\Users\User\AppData\Local\Temp\ccEEhKx4.s 			page 57


 2103              		.cfi_def_cfa_offset 24
 2104              		.cfi_offset 3, -24
 2105              		.cfi_offset 4, -20
 2106              		.cfi_offset 5, -16
 2107              		.cfi_offset 6, -12
 2108              		.cfi_offset 7, -8
 2109              		.cfi_offset 14, -4
 2110 0008 0646     		mov	r6, r0
 2111 000a 0F46     		mov	r7, r1
 2112 000c 1546     		mov	r5, r2
 323:Core/Src/USER/oled/ssd1306_oled_i2c.c **** 	SSD1306_move(top, left);
 2113              		.loc 1 323 2 is_stmt 1 view .LVU494
 2114 000e FFF7FEFF 		bl	SSD1306_move
 2115              	.LVL141:
 324:Core/Src/USER/oled/ssd1306_oled_i2c.c **** 	for(uint8_t i = 0; i < 6; i++) {
 2116              		.loc 1 324 2 view .LVU495
 2117              	.LBB30:
 2118              		.loc 1 324 6 view .LVU496
 2119              		.loc 1 324 14 is_stmt 0 view .LVU497
 2120 0012 0024     		movs	r4, #0
 2121              		.loc 1 324 2 view .LVU498
 2122 0014 0FE0     		b	.L148
 2123              	.LVL142:
 2124              	.L149:
 325:Core/Src/USER/oled/ssd1306_oled_i2c.c **** 		if(i == 2 || i == 4) { SSD1306_move(++top, left); }
 2125              		.loc 1 325 26 is_stmt 1 discriminator 3 view .LVU499
 2126 0016 0136     		adds	r6, r6, #1
 2127              	.LVL143:
 2128              		.loc 1 325 26 is_stmt 0 discriminator 3 view .LVU500
 2129 0018 F6B2     		uxtb	r6, r6
 2130              	.LVL144:
 2131              		.loc 1 325 26 discriminator 3 view .LVU501
 2132 001a 3946     		mov	r1, r7
 2133 001c 3046     		mov	r0, r6
 2134 001e FFF7FEFF 		bl	SSD1306_move
 2135              	.LVL145:
 2136              	.L150:
 326:Core/Src/USER/oled/ssd1306_oled_i2c.c **** 		SSD1306_putc(chartable[(num * 6) + i]);
 2137              		.loc 1 326 3 is_stmt 1 discriminator 2 view .LVU502
 2138              		.loc 1 326 31 is_stmt 0 discriminator 2 view .LVU503
 2139 0022 05EB4503 		add	r3, r5, r5, lsl #1
 2140              		.loc 1 326 36 discriminator 2 view .LVU504
 2141 0026 04EB4303 		add	r3, r4, r3, lsl #1
 2142              		.loc 1 326 3 discriminator 2 view .LVU505
 2143 002a 074A     		ldr	r2, .L158
 2144 002c D05C     		ldrb	r0, [r2, r3]	@ zero_extendqisi2
 2145 002e FFF7FEFF 		bl	SSD1306_putc
 2146              	.LVL146:
 324:Core/Src/USER/oled/ssd1306_oled_i2c.c **** 	for(uint8_t i = 0; i < 6; i++) {
 2147              		.loc 1 324 28 is_stmt 1 discriminator 2 view .LVU506
 324:Core/Src/USER/oled/ssd1306_oled_i2c.c **** 	for(uint8_t i = 0; i < 6; i++) {
 2148              		.loc 1 324 29 is_stmt 0 discriminator 2 view .LVU507
 2149 0032 0134     		adds	r4, r4, #1
 2150              	.LVL147:
 324:Core/Src/USER/oled/ssd1306_oled_i2c.c **** 	for(uint8_t i = 0; i < 6; i++) {
 2151              		.loc 1 324 29 discriminator 2 view .LVU508
 2152 0034 E4B2     		uxtb	r4, r4
ARM GAS  C:\Users\User\AppData\Local\Temp\ccEEhKx4.s 			page 58


 2153              	.LVL148:
 2154              	.L148:
 324:Core/Src/USER/oled/ssd1306_oled_i2c.c **** 	for(uint8_t i = 0; i < 6; i++) {
 2155              		.loc 1 324 21 is_stmt 1 discriminator 1 view .LVU509
 324:Core/Src/USER/oled/ssd1306_oled_i2c.c **** 	for(uint8_t i = 0; i < 6; i++) {
 2156              		.loc 1 324 2 is_stmt 0 discriminator 1 view .LVU510
 2157 0036 052C     		cmp	r4, #5
 2158 0038 04D8     		bhi	.L157
 325:Core/Src/USER/oled/ssd1306_oled_i2c.c **** 		if(i == 2 || i == 4) { SSD1306_move(++top, left); }
 2159              		.loc 1 325 3 is_stmt 1 view .LVU511
 325:Core/Src/USER/oled/ssd1306_oled_i2c.c **** 		if(i == 2 || i == 4) { SSD1306_move(++top, left); }
 2160              		.loc 1 325 5 is_stmt 0 view .LVU512
 2161 003a 022C     		cmp	r4, #2
 2162 003c EBD0     		beq	.L149
 325:Core/Src/USER/oled/ssd1306_oled_i2c.c **** 		if(i == 2 || i == 4) { SSD1306_move(++top, left); }
 2163              		.loc 1 325 13 discriminator 2 view .LVU513
 2164 003e 042C     		cmp	r4, #4
 2165 0040 EFD1     		bne	.L150
 2166 0042 E8E7     		b	.L149
 2167              	.L157:
 2168              	.LBE30:
 327:Core/Src/USER/oled/ssd1306_oled_i2c.c **** 	}		
 328:Core/Src/USER/oled/ssd1306_oled_i2c.c **** }
 2169              		.loc 1 328 1 view .LVU514
 2170 0044 F8BD     		pop	{r3, r4, r5, r6, r7, pc}
 2171              	.LVL149:
 2172              	.L159:
 2173              		.loc 1 328 1 view .LVU515
 2174 0046 00BF     		.align	2
 2175              	.L158:
 2176 0048 00000000 		.word	.LANCHOR7
 2177              		.cfi_endproc
 2178              	.LFE106:
 2180              		.section	.text.SSD1306_box,"ax",%progbits
 2181              		.align	1
 2182              		.global	SSD1306_box
 2183              		.syntax unified
 2184              		.thumb
 2185              		.thumb_func
 2187              	SSD1306_box:
 2188              	.LVL150:
 2189              	.LFB107:
 329:Core/Src/USER/oled/ssd1306_oled_i2c.c **** 
 330:Core/Src/USER/oled/ssd1306_oled_i2c.c **** /* draw box from PET symbols */
 331:Core/Src/USER/oled/ssd1306_oled_i2c.c **** void SSD1306_box(uint8_t top, uint8_t left, uint8_t width, uint8_t height) {
 2190              		.loc 1 331 76 is_stmt 1 view -0
 2191              		.cfi_startproc
 2192              		@ args = 0, pretend = 0, frame = 0
 2193              		@ frame_needed = 0, uses_anonymous_args = 0
 2194              		.loc 1 331 76 is_stmt 0 view .LVU517
 2195 0000 2DE9F843 		push	{r3, r4, r5, r6, r7, r8, r9, lr}
 2196              	.LCFI52:
 2197              		.cfi_def_cfa_offset 32
 2198              		.cfi_offset 3, -32
 2199              		.cfi_offset 4, -28
 2200              		.cfi_offset 5, -24
 2201              		.cfi_offset 6, -20
ARM GAS  C:\Users\User\AppData\Local\Temp\ccEEhKx4.s 			page 59


 2202              		.cfi_offset 7, -16
 2203              		.cfi_offset 8, -12
 2204              		.cfi_offset 9, -8
 2205              		.cfi_offset 14, -4
 2206 0004 8046     		mov	r8, r0
 2207 0006 0E46     		mov	r6, r1
 2208 0008 1746     		mov	r7, r2
 2209 000a 9946     		mov	r9, r3
 332:Core/Src/USER/oled/ssd1306_oled_i2c.c **** 	SSD1306_move(top, left);
 2210              		.loc 1 332 2 is_stmt 1 view .LVU518
 2211 000c FFF7FEFF 		bl	SSD1306_move
 2212              	.LVL151:
 333:Core/Src/USER/oled/ssd1306_oled_i2c.c **** 	SSD1306_putc(BOX_TL); for(uint8_t i = 0; i < width - 2; i++) { SSD1306_putc(BOX_HL);} SSD1306_putc
 2213              		.loc 1 333 2 view .LVU519
 2214 0010 1020     		movs	r0, #16
 2215 0012 FFF7FEFF 		bl	SSD1306_putc
 2216              	.LVL152:
 2217              		.loc 1 333 24 view .LVU520
 2218              	.LBB31:
 2219              		.loc 1 333 28 view .LVU521
 2220              		.loc 1 333 36 is_stmt 0 view .LVU522
 2221 0016 0024     		movs	r4, #0
 2222              		.loc 1 333 24 view .LVU523
 2223 0018 04E0     		b	.L161
 2224              	.LVL153:
 2225              	.L162:
 2226              		.loc 1 333 65 is_stmt 1 discriminator 3 view .LVU524
 2227 001a 4020     		movs	r0, #64
 2228 001c FFF7FEFF 		bl	SSD1306_putc
 2229              	.LVL154:
 2230              		.loc 1 333 58 discriminator 3 view .LVU525
 2231              		.loc 1 333 59 is_stmt 0 discriminator 3 view .LVU526
 2232 0020 0134     		adds	r4, r4, #1
 2233              	.LVL155:
 2234              		.loc 1 333 59 discriminator 3 view .LVU527
 2235 0022 E4B2     		uxtb	r4, r4
 2236              	.LVL156:
 2237              	.L161:
 2238              		.loc 1 333 43 is_stmt 1 discriminator 1 view .LVU528
 2239              		.loc 1 333 53 is_stmt 0 discriminator 1 view .LVU529
 2240 0024 BD1E     		subs	r5, r7, #2
 2241              		.loc 1 333 24 discriminator 1 view .LVU530
 2242 0026 AC42     		cmp	r4, r5
 2243 0028 F7DB     		blt	.L162
 2244              	.LBE31:
 2245              		.loc 1 333 88 is_stmt 1 discriminator 4 view .LVU531
 2246 002a 0E20     		movs	r0, #14
 2247 002c FFF7FEFF 		bl	SSD1306_putc
 2248              	.LVL157:
 334:Core/Src/USER/oled/ssd1306_oled_i2c.c **** 	for(uint8_t i = top+1; i < top+height-1; i++) {
 2249              		.loc 1 334 2 discriminator 4 view .LVU532
 2250              	.LBB32:
 2251              		.loc 1 334 6 discriminator 4 view .LVU533
 2252              		.loc 1 334 14 is_stmt 0 discriminator 4 view .LVU534
 2253 0030 08F10104 		add	r4, r8, #1
 2254              	.LVL158:
 2255              		.loc 1 334 14 discriminator 4 view .LVU535
ARM GAS  C:\Users\User\AppData\Local\Temp\ccEEhKx4.s 			page 60


 2256 0034 E4B2     		uxtb	r4, r4
 2257              	.LVL159:
 2258              		.loc 1 334 2 discriminator 4 view .LVU536
 2259 0036 12E0     		b	.L163
 2260              	.L164:
 335:Core/Src/USER/oled/ssd1306_oled_i2c.c **** 		SSD1306_move(i, left); 
 2261              		.loc 1 335 3 is_stmt 1 discriminator 3 view .LVU537
 2262 0038 3146     		mov	r1, r6
 2263 003a 2046     		mov	r0, r4
 2264 003c FFF7FEFF 		bl	SSD1306_move
 2265              	.LVL160:
 336:Core/Src/USER/oled/ssd1306_oled_i2c.c **** 		SSD1306_putc(BOX_VL); 
 2266              		.loc 1 336 3 discriminator 3 view .LVU538
 2267 0040 5D20     		movs	r0, #93
 2268 0042 FFF7FEFF 		bl	SSD1306_putc
 2269              	.LVL161:
 337:Core/Src/USER/oled/ssd1306_oled_i2c.c **** 		SSD1306_move(i, left + width - 1);
 2270              		.loc 1 337 3 discriminator 3 view .LVU539
 2271              		.loc 1 337 24 is_stmt 0 discriminator 3 view .LVU540
 2272 0046 F119     		adds	r1, r6, r7
 2273 0048 C9B2     		uxtb	r1, r1
 2274              		.loc 1 337 3 discriminator 3 view .LVU541
 2275 004a 0139     		subs	r1, r1, #1
 2276 004c C9B2     		uxtb	r1, r1
 2277 004e 2046     		mov	r0, r4
 2278 0050 FFF7FEFF 		bl	SSD1306_move
 2279              	.LVL162:
 338:Core/Src/USER/oled/ssd1306_oled_i2c.c **** 		SSD1306_putc(BOX_VL);
 2280              		.loc 1 338 3 is_stmt 1 discriminator 3 view .LVU542
 2281 0054 5D20     		movs	r0, #93
 2282 0056 FFF7FEFF 		bl	SSD1306_putc
 2283              	.LVL163:
 334:Core/Src/USER/oled/ssd1306_oled_i2c.c **** 		SSD1306_move(i, left); 
 2284              		.loc 1 334 43 discriminator 3 view .LVU543
 334:Core/Src/USER/oled/ssd1306_oled_i2c.c **** 		SSD1306_move(i, left); 
 2285              		.loc 1 334 44 is_stmt 0 discriminator 3 view .LVU544
 2286 005a 0134     		adds	r4, r4, #1
 2287              	.LVL164:
 334:Core/Src/USER/oled/ssd1306_oled_i2c.c **** 		SSD1306_move(i, left); 
 2288              		.loc 1 334 44 discriminator 3 view .LVU545
 2289 005c E4B2     		uxtb	r4, r4
 2290              	.LVL165:
 2291              	.L163:
 334:Core/Src/USER/oled/ssd1306_oled_i2c.c **** 		SSD1306_move(i, left); 
 2292              		.loc 1 334 25 is_stmt 1 discriminator 1 view .LVU546
 334:Core/Src/USER/oled/ssd1306_oled_i2c.c **** 		SSD1306_move(i, left); 
 2293              		.loc 1 334 32 is_stmt 0 discriminator 1 view .LVU547
 2294 005e 08EB0903 		add	r3, r8, r9
 334:Core/Src/USER/oled/ssd1306_oled_i2c.c **** 		SSD1306_move(i, left); 
 2295              		.loc 1 334 39 discriminator 1 view .LVU548
 2296 0062 013B     		subs	r3, r3, #1
 334:Core/Src/USER/oled/ssd1306_oled_i2c.c **** 		SSD1306_move(i, left); 
 2297              		.loc 1 334 2 discriminator 1 view .LVU549
 2298 0064 9C42     		cmp	r4, r3
 2299 0066 E7DB     		blt	.L164
 334:Core/Src/USER/oled/ssd1306_oled_i2c.c **** 		SSD1306_move(i, left); 
 2300              		.loc 1 334 2 discriminator 1 view .LVU550
ARM GAS  C:\Users\User\AppData\Local\Temp\ccEEhKx4.s 			page 61


 2301              	.LBE32:
 339:Core/Src/USER/oled/ssd1306_oled_i2c.c **** 	}
 340:Core/Src/USER/oled/ssd1306_oled_i2c.c **** 	SSD1306_move(top + height - 1, left);
 2302              		.loc 1 340 2 is_stmt 1 view .LVU551
 2303              		.loc 1 340 19 is_stmt 0 view .LVU552
 2304 0068 08EB0900 		add	r0, r8, r9
 2305 006c C0B2     		uxtb	r0, r0
 2306              		.loc 1 340 2 view .LVU553
 2307 006e 0138     		subs	r0, r0, #1
 2308 0070 3146     		mov	r1, r6
 2309 0072 C0B2     		uxtb	r0, r0
 2310 0074 FFF7FEFF 		bl	SSD1306_move
 2311              	.LVL166:
 341:Core/Src/USER/oled/ssd1306_oled_i2c.c **** 	SSD1306_putc(BOX_BL); for(uint8_t i = 0; i < width - 2; i++) { SSD1306_putc(BOX_HL);} SSD1306_putc
 2312              		.loc 1 341 2 is_stmt 1 view .LVU554
 2313 0078 0D20     		movs	r0, #13
 2314 007a FFF7FEFF 		bl	SSD1306_putc
 2315              	.LVL167:
 2316              		.loc 1 341 24 view .LVU555
 2317              	.LBB33:
 2318              		.loc 1 341 28 view .LVU556
 2319              		.loc 1 341 36 is_stmt 0 view .LVU557
 2320 007e 0024     		movs	r4, #0
 2321              	.LVL168:
 2322              		.loc 1 341 24 view .LVU558
 2323 0080 04E0     		b	.L165
 2324              	.LVL169:
 2325              	.L166:
 2326              		.loc 1 341 65 is_stmt 1 discriminator 3 view .LVU559
 2327 0082 4020     		movs	r0, #64
 2328 0084 FFF7FEFF 		bl	SSD1306_putc
 2329              	.LVL170:
 2330              		.loc 1 341 58 discriminator 3 view .LVU560
 2331              		.loc 1 341 59 is_stmt 0 discriminator 3 view .LVU561
 2332 0088 0134     		adds	r4, r4, #1
 2333              	.LVL171:
 2334              		.loc 1 341 59 discriminator 3 view .LVU562
 2335 008a E4B2     		uxtb	r4, r4
 2336              	.LVL172:
 2337              	.L165:
 2338              		.loc 1 341 43 is_stmt 1 discriminator 1 view .LVU563
 2339              		.loc 1 341 24 is_stmt 0 discriminator 1 view .LVU564
 2340 008c A542     		cmp	r5, r4
 2341 008e F8DC     		bgt	.L166
 2342              	.LBE33:
 2343              		.loc 1 341 88 is_stmt 1 discriminator 4 view .LVU565
 2344 0090 1D20     		movs	r0, #29
 2345 0092 FFF7FEFF 		bl	SSD1306_putc
 2346              	.LVL173:
 342:Core/Src/USER/oled/ssd1306_oled_i2c.c **** }
 2347              		.loc 1 342 1 is_stmt 0 discriminator 4 view .LVU566
 2348 0096 BDE8F883 		pop	{r3, r4, r5, r6, r7, r8, r9, pc}
 2349              		.loc 1 342 1 discriminator 4 view .LVU567
 2350              		.cfi_endproc
 2351              	.LFE107:
 2353              		.section	.text.SSD1306_scroll_print,"ax",%progbits
 2354              		.align	1
ARM GAS  C:\Users\User\AppData\Local\Temp\ccEEhKx4.s 			page 62


 2355              		.global	SSD1306_scroll_print
 2356              		.syntax unified
 2357              		.thumb
 2358              		.thumb_func
 2360              	SSD1306_scroll_print:
 2361              	.LVL174:
 2362              	.LFB108:
 343:Core/Src/USER/oled/ssd1306_oled_i2c.c **** 
 344:Core/Src/USER/oled/ssd1306_oled_i2c.c **** /* 
 345:Core/Src/USER/oled/ssd1306_oled_i2c.c **** "I tell you, we are here on Earth to fart around, and don't let anybody tell you different." - Kurt
 346:Core/Src/USER/oled/ssd1306_oled_i2c.c **** */
 347:Core/Src/USER/oled/ssd1306_oled_i2c.c **** 
 348:Core/Src/USER/oled/ssd1306_oled_i2c.c **** /* www.vabolis.lt adds */
 349:Core/Src/USER/oled/ssd1306_oled_i2c.c **** /* scroll stuff up and print on bottom of the screen. "listing" emulation */ 
 350:Core/Src/USER/oled/ssd1306_oled_i2c.c **** void SSD1306_scroll_print(char *n)
 351:Core/Src/USER/oled/ssd1306_oled_i2c.c **** {
 2363              		.loc 1 351 1 is_stmt 1 view -0
 2364              		.cfi_startproc
 2365              		@ args = 0, pretend = 0, frame = 0
 2366              		@ frame_needed = 0, uses_anonymous_args = 0
 2367              		.loc 1 351 1 is_stmt 0 view .LVU569
 2368 0000 38B5     		push	{r3, r4, r5, lr}
 2369              	.LCFI53:
 2370              		.cfi_def_cfa_offset 16
 2371              		.cfi_offset 3, -16
 2372              		.cfi_offset 4, -12
 2373              		.cfi_offset 5, -8
 2374              		.cfi_offset 14, -4
 2375 0002 0446     		mov	r4, r0
 352:Core/Src/USER/oled/ssd1306_oled_i2c.c **** unsigned char tmp;
 2376              		.loc 1 352 1 is_stmt 1 view .LVU570
 353:Core/Src/USER/oled/ssd1306_oled_i2c.c **** 	SSD1306_scroll(oled_line*8);
 2377              		.loc 1 353 2 view .LVU571
 2378 0004 0E4D     		ldr	r5, .L173
 2379 0006 2878     		ldrb	r0, [r5]	@ zero_extendqisi2
 2380              	.LVL175:
 2381              		.loc 1 353 2 is_stmt 0 view .LVU572
 2382 0008 C000     		lsls	r0, r0, #3
 2383 000a 00F0F800 		and	r0, r0, #248
 2384 000e FFF7FEFF 		bl	SSD1306_scroll
 2385              	.LVL176:
 354:Core/Src/USER/oled/ssd1306_oled_i2c.c **** 	if(oled_line==0){tmp=7;} else {tmp=oled_line-1;}
 2386              		.loc 1 354 2 is_stmt 1 view .LVU573
 2387              		.loc 1 354 14 is_stmt 0 view .LVU574
 2388 0012 2B78     		ldrb	r3, [r5]	@ zero_extendqisi2
 2389              		.loc 1 354 4 view .LVU575
 2390 0014 93B1     		cbz	r3, .L171
 2391              		.loc 1 354 33 is_stmt 1 discriminator 2 view .LVU576
 2392              		.loc 1 354 36 is_stmt 0 discriminator 2 view .LVU577
 2393 0016 013B     		subs	r3, r3, #1
 2394 0018 D8B2     		uxtb	r0, r3
 2395              	.LVL177:
 2396              	.L169:
 355:Core/Src/USER/oled/ssd1306_oled_i2c.c **** 	SSD1306_move(tmp, 0);
 2397              		.loc 1 355 2 is_stmt 1 view .LVU578
 2398 001a 0021     		movs	r1, #0
 2399 001c FFF7FEFF 		bl	SSD1306_move
ARM GAS  C:\Users\User\AppData\Local\Temp\ccEEhKx4.s 			page 63


 2400              	.LVL178:
 356:Core/Src/USER/oled/ssd1306_oled_i2c.c **** 	SSD1306_puts(n);
 2401              		.loc 1 356 2 view .LVU579
 2402 0020 2046     		mov	r0, r4
 2403 0022 FFF7FEFF 		bl	SSD1306_puts
 2404              	.LVL179:
 357:Core/Src/USER/oled/ssd1306_oled_i2c.c **** 	oled_line++; if(oled_line>7)oled_line=0;
 2405              		.loc 1 357 2 view .LVU580
 2406              		.loc 1 357 11 is_stmt 0 view .LVU581
 2407 0026 064A     		ldr	r2, .L173
 2408 0028 1378     		ldrb	r3, [r2]	@ zero_extendqisi2
 2409 002a 0133     		adds	r3, r3, #1
 2410 002c DBB2     		uxtb	r3, r3
 2411 002e 1370     		strb	r3, [r2]
 2412              		.loc 1 357 15 is_stmt 1 view .LVU582
 2413              		.loc 1 357 17 is_stmt 0 view .LVU583
 2414 0030 072B     		cmp	r3, #7
 2415 0032 02D9     		bls	.L168
 2416              		.loc 1 357 30 is_stmt 1 discriminator 1 view .LVU584
 2417              		.loc 1 357 39 is_stmt 0 discriminator 1 view .LVU585
 2418 0034 1346     		mov	r3, r2
 2419 0036 0022     		movs	r2, #0
 2420 0038 1A70     		strb	r2, [r3]
 2421              	.L168:
 358:Core/Src/USER/oled/ssd1306_oled_i2c.c **** }
 2422              		.loc 1 358 1 view .LVU586
 2423 003a 38BD     		pop	{r3, r4, r5, pc}
 2424              	.LVL180:
 2425              	.L171:
 354:Core/Src/USER/oled/ssd1306_oled_i2c.c **** 	SSD1306_move(tmp, 0);
 2426              		.loc 1 354 22 view .LVU587
 2427 003c 0720     		movs	r0, #7
 2428 003e ECE7     		b	.L169
 2429              	.L174:
 2430              		.align	2
 2431              	.L173:
 2432 0040 00000000 		.word	.LANCHOR6
 2433              		.cfi_endproc
 2434              	.LFE108:
 2436              		.section	.text.SSD1306_stopscroll,"ax",%progbits
 2437              		.align	1
 2438              		.global	SSD1306_stopscroll
 2439              		.syntax unified
 2440              		.thumb
 2441              		.thumb_func
 2443              	SSD1306_stopscroll:
 2444              	.LFB109:
 359:Core/Src/USER/oled/ssd1306_oled_i2c.c **** 
 360:Core/Src/USER/oled/ssd1306_oled_i2c.c **** void SSD1306_stopscroll(void){
 2445              		.loc 1 360 30 is_stmt 1 view -0
 2446              		.cfi_startproc
 2447              		@ args = 0, pretend = 0, frame = 0
 2448              		@ frame_needed = 0, uses_anonymous_args = 0
 2449 0000 08B5     		push	{r3, lr}
 2450              	.LCFI54:
 2451              		.cfi_def_cfa_offset 8
 2452              		.cfi_offset 3, -8
ARM GAS  C:\Users\User\AppData\Local\Temp\ccEEhKx4.s 			page 64


 2453              		.cfi_offset 14, -4
 361:Core/Src/USER/oled/ssd1306_oled_i2c.c ****   SSD1306_command1(SSD1306_DEACTIVATE_SCROLL);
 2454              		.loc 1 361 3 view .LVU589
 2455 0002 2E20     		movs	r0, #46
 2456 0004 FFF7FEFF 		bl	SSD1306_command1
 2457              	.LVL181:
 362:Core/Src/USER/oled/ssd1306_oled_i2c.c **** }
 2458              		.loc 1 362 1 is_stmt 0 view .LVU590
 2459 0008 08BD     		pop	{r3, pc}
 2460              		.cfi_endproc
 2461              	.LFE109:
 2463              		.section	.text.SSD1306_dim,"ax",%progbits
 2464              		.align	1
 2465              		.global	SSD1306_dim
 2466              		.syntax unified
 2467              		.thumb
 2468              		.thumb_func
 2470              	SSD1306_dim:
 2471              	.LVL182:
 2472              	.LFB110:
 363:Core/Src/USER/oled/ssd1306_oled_i2c.c **** 
 364:Core/Src/USER/oled/ssd1306_oled_i2c.c **** 
 365:Core/Src/USER/oled/ssd1306_oled_i2c.c **** // Dim the display
 366:Core/Src/USER/oled/ssd1306_oled_i2c.c **** // dim = true: display is dimmed
 367:Core/Src/USER/oled/ssd1306_oled_i2c.c **** // dim = false: display is normal
 368:Core/Src/USER/oled/ssd1306_oled_i2c.c **** void SSD1306_dim(unsigned char dim) {
 2473              		.loc 1 368 37 is_stmt 1 view -0
 2474              		.cfi_startproc
 2475              		@ args = 0, pretend = 0, frame = 0
 2476              		@ frame_needed = 0, uses_anonymous_args = 0
 2477              		.loc 1 368 37 is_stmt 0 view .LVU592
 2478 0000 10B5     		push	{r4, lr}
 2479              	.LCFI55:
 2480              		.cfi_def_cfa_offset 8
 2481              		.cfi_offset 4, -8
 2482              		.cfi_offset 14, -4
 369:Core/Src/USER/oled/ssd1306_oled_i2c.c ****   uint8_t contrast;
 2483              		.loc 1 369 3 is_stmt 1 view .LVU593
 370:Core/Src/USER/oled/ssd1306_oled_i2c.c **** 
 371:Core/Src/USER/oled/ssd1306_oled_i2c.c ****   if (dim) {
 2484              		.loc 1 371 3 view .LVU594
 2485              		.loc 1 371 6 is_stmt 0 view .LVU595
 2486 0002 38B1     		cbz	r0, .L179
 372:Core/Src/USER/oled/ssd1306_oled_i2c.c **** 			contrast = 0; // Dimmed display
 2487              		.loc 1 372 13 view .LVU596
 2488 0004 0024     		movs	r4, #0
 2489              	.L178:
 2490              	.LVL183:
 373:Core/Src/USER/oled/ssd1306_oled_i2c.c **** 			} else {
 374:Core/Src/USER/oled/ssd1306_oled_i2c.c **** //				if (_vccstate == SSD1306_EXTERNALVCC) {
 375:Core/Src/USER/oled/ssd1306_oled_i2c.c **** //						contrast = 0x9F;
 376:Core/Src/USER/oled/ssd1306_oled_i2c.c **** //					} else {
 377:Core/Src/USER/oled/ssd1306_oled_i2c.c **** 			contrast = 0xCF;
 378:Core/Src/USER/oled/ssd1306_oled_i2c.c **** //    }
 379:Core/Src/USER/oled/ssd1306_oled_i2c.c ****   }
 380:Core/Src/USER/oled/ssd1306_oled_i2c.c ****   // the range of contrast to too small to be really useful
 381:Core/Src/USER/oled/ssd1306_oled_i2c.c ****   // it is useful to dim the display
ARM GAS  C:\Users\User\AppData\Local\Temp\ccEEhKx4.s 			page 65


 382:Core/Src/USER/oled/ssd1306_oled_i2c.c ****   SSD1306_command1(SSD1306_SETCONTRAST);
 2491              		.loc 1 382 3 is_stmt 1 view .LVU597
 2492 0006 8120     		movs	r0, #129
 2493              	.LVL184:
 2494              		.loc 1 382 3 is_stmt 0 view .LVU598
 2495 0008 FFF7FEFF 		bl	SSD1306_command1
 2496              	.LVL185:
 383:Core/Src/USER/oled/ssd1306_oled_i2c.c ****   SSD1306_command1(contrast);
 2497              		.loc 1 383 3 is_stmt 1 view .LVU599
 2498 000c 2046     		mov	r0, r4
 2499 000e FFF7FEFF 		bl	SSD1306_command1
 2500              	.LVL186:
 384:Core/Src/USER/oled/ssd1306_oled_i2c.c **** }
 2501              		.loc 1 384 1 is_stmt 0 view .LVU600
 2502 0012 10BD     		pop	{r4, pc}
 2503              	.LVL187:
 2504              	.L179:
 377:Core/Src/USER/oled/ssd1306_oled_i2c.c **** //    }
 2505              		.loc 1 377 13 view .LVU601
 2506 0014 CF24     		movs	r4, #207
 2507 0016 F6E7     		b	.L178
 2508              		.cfi_endproc
 2509              	.LFE110:
 2511              		.section	.text.SSD1306_startscrollright,"ax",%progbits
 2512              		.align	1
 2513              		.global	SSD1306_startscrollright
 2514              		.syntax unified
 2515              		.thumb
 2516              		.thumb_func
 2518              	SSD1306_startscrollright:
 2519              	.LVL188:
 2520              	.LFB111:
 385:Core/Src/USER/oled/ssd1306_oled_i2c.c **** 
 386:Core/Src/USER/oled/ssd1306_oled_i2c.c **** 
 387:Core/Src/USER/oled/ssd1306_oled_i2c.c **** // startscrollright
 388:Core/Src/USER/oled/ssd1306_oled_i2c.c **** // Activate a right handed scroll for rows start through stop
 389:Core/Src/USER/oled/ssd1306_oled_i2c.c **** // Hint, the display is 16 rows tall. To scroll the whole display, run:
 390:Core/Src/USER/oled/ssd1306_oled_i2c.c **** // display.scrollright(0x00, 0x0F)
 391:Core/Src/USER/oled/ssd1306_oled_i2c.c **** void SSD1306_startscrollright(uint8_t start, uint8_t stop){
 2521              		.loc 1 391 59 is_stmt 1 view -0
 2522              		.cfi_startproc
 2523              		@ args = 0, pretend = 0, frame = 0
 2524              		@ frame_needed = 0, uses_anonymous_args = 0
 2525              		.loc 1 391 59 is_stmt 0 view .LVU603
 2526 0000 38B5     		push	{r3, r4, r5, lr}
 2527              	.LCFI56:
 2528              		.cfi_def_cfa_offset 16
 2529              		.cfi_offset 3, -16
 2530              		.cfi_offset 4, -12
 2531              		.cfi_offset 5, -8
 2532              		.cfi_offset 14, -4
 2533 0002 0546     		mov	r5, r0
 2534 0004 0C46     		mov	r4, r1
 392:Core/Src/USER/oled/ssd1306_oled_i2c.c ****   SSD1306_command1(SSD1306_RIGHT_HORIZONTAL_SCROLL);
 2535              		.loc 1 392 3 is_stmt 1 view .LVU604
 2536 0006 2620     		movs	r0, #38
 2537              	.LVL189:
ARM GAS  C:\Users\User\AppData\Local\Temp\ccEEhKx4.s 			page 66


 2538              		.loc 1 392 3 is_stmt 0 view .LVU605
 2539 0008 FFF7FEFF 		bl	SSD1306_command1
 2540              	.LVL190:
 393:Core/Src/USER/oled/ssd1306_oled_i2c.c ****   SSD1306_command1(0X00);
 2541              		.loc 1 393 3 is_stmt 1 view .LVU606
 2542 000c 0020     		movs	r0, #0
 2543 000e FFF7FEFF 		bl	SSD1306_command1
 2544              	.LVL191:
 394:Core/Src/USER/oled/ssd1306_oled_i2c.c ****   SSD1306_command1(start);
 2545              		.loc 1 394 3 view .LVU607
 2546 0012 2846     		mov	r0, r5
 2547 0014 FFF7FEFF 		bl	SSD1306_command1
 2548              	.LVL192:
 395:Core/Src/USER/oled/ssd1306_oled_i2c.c ****   SSD1306_command1(0X00);
 2549              		.loc 1 395 3 view .LVU608
 2550 0018 0020     		movs	r0, #0
 2551 001a FFF7FEFF 		bl	SSD1306_command1
 2552              	.LVL193:
 396:Core/Src/USER/oled/ssd1306_oled_i2c.c ****   SSD1306_command1(stop);
 2553              		.loc 1 396 3 view .LVU609
 2554 001e 2046     		mov	r0, r4
 2555 0020 FFF7FEFF 		bl	SSD1306_command1
 2556              	.LVL194:
 397:Core/Src/USER/oled/ssd1306_oled_i2c.c ****   SSD1306_command1(0X00);
 2557              		.loc 1 397 3 view .LVU610
 2558 0024 0020     		movs	r0, #0
 2559 0026 FFF7FEFF 		bl	SSD1306_command1
 2560              	.LVL195:
 398:Core/Src/USER/oled/ssd1306_oled_i2c.c ****   SSD1306_command1(0XFF);
 2561              		.loc 1 398 3 view .LVU611
 2562 002a FF20     		movs	r0, #255
 2563 002c FFF7FEFF 		bl	SSD1306_command1
 2564              	.LVL196:
 399:Core/Src/USER/oled/ssd1306_oled_i2c.c ****   SSD1306_command1(SSD1306_ACTIVATE_SCROLL);
 2565              		.loc 1 399 3 view .LVU612
 2566 0030 2F20     		movs	r0, #47
 2567 0032 FFF7FEFF 		bl	SSD1306_command1
 2568              	.LVL197:
 400:Core/Src/USER/oled/ssd1306_oled_i2c.c **** }
 2569              		.loc 1 400 1 is_stmt 0 view .LVU613
 2570 0036 38BD     		pop	{r3, r4, r5, pc}
 2571              		.cfi_endproc
 2572              	.LFE111:
 2574              		.section	.text.SSD1306_startscrollleft,"ax",%progbits
 2575              		.align	1
 2576              		.global	SSD1306_startscrollleft
 2577              		.syntax unified
 2578              		.thumb
 2579              		.thumb_func
 2581              	SSD1306_startscrollleft:
 2582              	.LVL198:
 2583              	.LFB112:
 401:Core/Src/USER/oled/ssd1306_oled_i2c.c **** 
 402:Core/Src/USER/oled/ssd1306_oled_i2c.c **** // startscrollleft
 403:Core/Src/USER/oled/ssd1306_oled_i2c.c **** // Activate a right handed scroll for rows start through stop
 404:Core/Src/USER/oled/ssd1306_oled_i2c.c **** // Hint, the display is 16 rows tall. To scroll the whole display, run:
 405:Core/Src/USER/oled/ssd1306_oled_i2c.c **** // display.scrollright(0x00, 0x0F)
ARM GAS  C:\Users\User\AppData\Local\Temp\ccEEhKx4.s 			page 67


 406:Core/Src/USER/oled/ssd1306_oled_i2c.c **** void SSD1306_startscrollleft(uint8_t start, uint8_t stop){
 2584              		.loc 1 406 58 is_stmt 1 view -0
 2585              		.cfi_startproc
 2586              		@ args = 0, pretend = 0, frame = 0
 2587              		@ frame_needed = 0, uses_anonymous_args = 0
 2588              		.loc 1 406 58 is_stmt 0 view .LVU615
 2589 0000 38B5     		push	{r3, r4, r5, lr}
 2590              	.LCFI57:
 2591              		.cfi_def_cfa_offset 16
 2592              		.cfi_offset 3, -16
 2593              		.cfi_offset 4, -12
 2594              		.cfi_offset 5, -8
 2595              		.cfi_offset 14, -4
 2596 0002 0546     		mov	r5, r0
 2597 0004 0C46     		mov	r4, r1
 407:Core/Src/USER/oled/ssd1306_oled_i2c.c ****   SSD1306_command1(SSD1306_LEFT_HORIZONTAL_SCROLL);
 2598              		.loc 1 407 3 is_stmt 1 view .LVU616
 2599 0006 2720     		movs	r0, #39
 2600              	.LVL199:
 2601              		.loc 1 407 3 is_stmt 0 view .LVU617
 2602 0008 FFF7FEFF 		bl	SSD1306_command1
 2603              	.LVL200:
 408:Core/Src/USER/oled/ssd1306_oled_i2c.c ****   SSD1306_command1(0X00);
 2604              		.loc 1 408 3 is_stmt 1 view .LVU618
 2605 000c 0020     		movs	r0, #0
 2606 000e FFF7FEFF 		bl	SSD1306_command1
 2607              	.LVL201:
 409:Core/Src/USER/oled/ssd1306_oled_i2c.c ****   SSD1306_command1(start);
 2608              		.loc 1 409 3 view .LVU619
 2609 0012 2846     		mov	r0, r5
 2610 0014 FFF7FEFF 		bl	SSD1306_command1
 2611              	.LVL202:
 410:Core/Src/USER/oled/ssd1306_oled_i2c.c ****   SSD1306_command1(0X00);
 2612              		.loc 1 410 3 view .LVU620
 2613 0018 0020     		movs	r0, #0
 2614 001a FFF7FEFF 		bl	SSD1306_command1
 2615              	.LVL203:
 411:Core/Src/USER/oled/ssd1306_oled_i2c.c ****   SSD1306_command1(stop);
 2616              		.loc 1 411 3 view .LVU621
 2617 001e 2046     		mov	r0, r4
 2618 0020 FFF7FEFF 		bl	SSD1306_command1
 2619              	.LVL204:
 412:Core/Src/USER/oled/ssd1306_oled_i2c.c ****   SSD1306_command1(0X00);
 2620              		.loc 1 412 3 view .LVU622
 2621 0024 0020     		movs	r0, #0
 2622 0026 FFF7FEFF 		bl	SSD1306_command1
 2623              	.LVL205:
 413:Core/Src/USER/oled/ssd1306_oled_i2c.c ****   SSD1306_command1(0XFF);
 2624              		.loc 1 413 3 view .LVU623
 2625 002a FF20     		movs	r0, #255
 2626 002c FFF7FEFF 		bl	SSD1306_command1
 2627              	.LVL206:
 414:Core/Src/USER/oled/ssd1306_oled_i2c.c ****   SSD1306_command1(SSD1306_ACTIVATE_SCROLL);
 2628              		.loc 1 414 3 view .LVU624
 2629 0030 2F20     		movs	r0, #47
 2630 0032 FFF7FEFF 		bl	SSD1306_command1
 2631              	.LVL207:
ARM GAS  C:\Users\User\AppData\Local\Temp\ccEEhKx4.s 			page 68


 415:Core/Src/USER/oled/ssd1306_oled_i2c.c **** }
 2632              		.loc 1 415 1 is_stmt 0 view .LVU625
 2633 0036 38BD     		pop	{r3, r4, r5, pc}
 2634              		.cfi_endproc
 2635              	.LFE112:
 2637              		.section	.text.SSD1306_startscrolldiagright,"ax",%progbits
 2638              		.align	1
 2639              		.global	SSD1306_startscrolldiagright
 2640              		.syntax unified
 2641              		.thumb
 2642              		.thumb_func
 2644              	SSD1306_startscrolldiagright:
 2645              	.LVL208:
 2646              	.LFB113:
 416:Core/Src/USER/oled/ssd1306_oled_i2c.c **** 
 417:Core/Src/USER/oled/ssd1306_oled_i2c.c **** // startscrolldiagright
 418:Core/Src/USER/oled/ssd1306_oled_i2c.c **** // Activate a diagonal scroll for rows start through stop
 419:Core/Src/USER/oled/ssd1306_oled_i2c.c **** // Hint, the display is 16 rows tall. To scroll the whole display, run:
 420:Core/Src/USER/oled/ssd1306_oled_i2c.c **** // display.scrollright(0x00, 0x0F)
 421:Core/Src/USER/oled/ssd1306_oled_i2c.c **** void SSD1306_startscrolldiagright(uint8_t start, uint8_t stop){
 2647              		.loc 1 421 63 is_stmt 1 view -0
 2648              		.cfi_startproc
 2649              		@ args = 0, pretend = 0, frame = 0
 2650              		@ frame_needed = 0, uses_anonymous_args = 0
 2651              		.loc 1 421 63 is_stmt 0 view .LVU627
 2652 0000 38B5     		push	{r3, r4, r5, lr}
 2653              	.LCFI58:
 2654              		.cfi_def_cfa_offset 16
 2655              		.cfi_offset 3, -16
 2656              		.cfi_offset 4, -12
 2657              		.cfi_offset 5, -8
 2658              		.cfi_offset 14, -4
 2659 0002 0546     		mov	r5, r0
 2660 0004 0C46     		mov	r4, r1
 422:Core/Src/USER/oled/ssd1306_oled_i2c.c ****   SSD1306_command1(SSD1306_SET_VERTICAL_SCROLL_AREA);
 2661              		.loc 1 422 3 is_stmt 1 view .LVU628
 2662 0006 A320     		movs	r0, #163
 2663              	.LVL209:
 2664              		.loc 1 422 3 is_stmt 0 view .LVU629
 2665 0008 FFF7FEFF 		bl	SSD1306_command1
 2666              	.LVL210:
 423:Core/Src/USER/oled/ssd1306_oled_i2c.c ****   SSD1306_command1(0X00);
 2667              		.loc 1 423 3 is_stmt 1 view .LVU630
 2668 000c 0020     		movs	r0, #0
 2669 000e FFF7FEFF 		bl	SSD1306_command1
 2670              	.LVL211:
 424:Core/Src/USER/oled/ssd1306_oled_i2c.c ****   SSD1306_command1(SSD1306_HEIGHT);
 2671              		.loc 1 424 3 view .LVU631
 2672 0012 2020     		movs	r0, #32
 2673 0014 FFF7FEFF 		bl	SSD1306_command1
 2674              	.LVL212:
 425:Core/Src/USER/oled/ssd1306_oled_i2c.c ****   SSD1306_command1(SSD1306_VERTICAL_AND_RIGHT_HORIZONTAL_SCROLL);
 2675              		.loc 1 425 3 view .LVU632
 2676 0018 2920     		movs	r0, #41
 2677 001a FFF7FEFF 		bl	SSD1306_command1
 2678              	.LVL213:
 426:Core/Src/USER/oled/ssd1306_oled_i2c.c ****   SSD1306_command1(0X00);
ARM GAS  C:\Users\User\AppData\Local\Temp\ccEEhKx4.s 			page 69


 2679              		.loc 1 426 3 view .LVU633
 2680 001e 0020     		movs	r0, #0
 2681 0020 FFF7FEFF 		bl	SSD1306_command1
 2682              	.LVL214:
 427:Core/Src/USER/oled/ssd1306_oled_i2c.c ****   SSD1306_command1(start);
 2683              		.loc 1 427 3 view .LVU634
 2684 0024 2846     		mov	r0, r5
 2685 0026 FFF7FEFF 		bl	SSD1306_command1
 2686              	.LVL215:
 428:Core/Src/USER/oled/ssd1306_oled_i2c.c ****   SSD1306_command1(0X00);
 2687              		.loc 1 428 3 view .LVU635
 2688 002a 0020     		movs	r0, #0
 2689 002c FFF7FEFF 		bl	SSD1306_command1
 2690              	.LVL216:
 429:Core/Src/USER/oled/ssd1306_oled_i2c.c ****   SSD1306_command1(stop);
 2691              		.loc 1 429 3 view .LVU636
 2692 0030 2046     		mov	r0, r4
 2693 0032 FFF7FEFF 		bl	SSD1306_command1
 2694              	.LVL217:
 430:Core/Src/USER/oled/ssd1306_oled_i2c.c ****   SSD1306_command1(0X01);
 2695              		.loc 1 430 3 view .LVU637
 2696 0036 0120     		movs	r0, #1
 2697 0038 FFF7FEFF 		bl	SSD1306_command1
 2698              	.LVL218:
 431:Core/Src/USER/oled/ssd1306_oled_i2c.c ****   SSD1306_command1(SSD1306_ACTIVATE_SCROLL);
 2699              		.loc 1 431 3 view .LVU638
 2700 003c 2F20     		movs	r0, #47
 2701 003e FFF7FEFF 		bl	SSD1306_command1
 2702              	.LVL219:
 432:Core/Src/USER/oled/ssd1306_oled_i2c.c **** }
 2703              		.loc 1 432 1 is_stmt 0 view .LVU639
 2704 0042 38BD     		pop	{r3, r4, r5, pc}
 2705              		.cfi_endproc
 2706              	.LFE113:
 2708              		.section	.text.SSD1306_startscrolldiagleft,"ax",%progbits
 2709              		.align	1
 2710              		.global	SSD1306_startscrolldiagleft
 2711              		.syntax unified
 2712              		.thumb
 2713              		.thumb_func
 2715              	SSD1306_startscrolldiagleft:
 2716              	.LVL220:
 2717              	.LFB114:
 433:Core/Src/USER/oled/ssd1306_oled_i2c.c **** 
 434:Core/Src/USER/oled/ssd1306_oled_i2c.c **** // startscrolldiagleft
 435:Core/Src/USER/oled/ssd1306_oled_i2c.c **** // Activate a diagonal scroll for rows start through stop
 436:Core/Src/USER/oled/ssd1306_oled_i2c.c **** // Hint, the display is 16 rows tall. To scroll the whole display, run:
 437:Core/Src/USER/oled/ssd1306_oled_i2c.c **** // display.scrollright(0x00, 0x0F)
 438:Core/Src/USER/oled/ssd1306_oled_i2c.c **** void SSD1306_startscrolldiagleft(uint8_t start, uint8_t stop){
 2718              		.loc 1 438 62 is_stmt 1 view -0
 2719              		.cfi_startproc
 2720              		@ args = 0, pretend = 0, frame = 0
 2721              		@ frame_needed = 0, uses_anonymous_args = 0
 2722              		.loc 1 438 62 is_stmt 0 view .LVU641
 2723 0000 38B5     		push	{r3, r4, r5, lr}
 2724              	.LCFI59:
 2725              		.cfi_def_cfa_offset 16
ARM GAS  C:\Users\User\AppData\Local\Temp\ccEEhKx4.s 			page 70


 2726              		.cfi_offset 3, -16
 2727              		.cfi_offset 4, -12
 2728              		.cfi_offset 5, -8
 2729              		.cfi_offset 14, -4
 2730 0002 0546     		mov	r5, r0
 2731 0004 0C46     		mov	r4, r1
 439:Core/Src/USER/oled/ssd1306_oled_i2c.c ****   SSD1306_command1(SSD1306_SET_VERTICAL_SCROLL_AREA);
 2732              		.loc 1 439 3 is_stmt 1 view .LVU642
 2733 0006 A320     		movs	r0, #163
 2734              	.LVL221:
 2735              		.loc 1 439 3 is_stmt 0 view .LVU643
 2736 0008 FFF7FEFF 		bl	SSD1306_command1
 2737              	.LVL222:
 440:Core/Src/USER/oled/ssd1306_oled_i2c.c ****   SSD1306_command1(0X00);
 2738              		.loc 1 440 3 is_stmt 1 view .LVU644
 2739 000c 0020     		movs	r0, #0
 2740 000e FFF7FEFF 		bl	SSD1306_command1
 2741              	.LVL223:
 441:Core/Src/USER/oled/ssd1306_oled_i2c.c ****   SSD1306_command1(SSD1306_HEIGHT);
 2742              		.loc 1 441 3 view .LVU645
 2743 0012 2020     		movs	r0, #32
 2744 0014 FFF7FEFF 		bl	SSD1306_command1
 2745              	.LVL224:
 442:Core/Src/USER/oled/ssd1306_oled_i2c.c ****   SSD1306_command1(SSD1306_VERTICAL_AND_LEFT_HORIZONTAL_SCROLL);
 2746              		.loc 1 442 3 view .LVU646
 2747 0018 2A20     		movs	r0, #42
 2748 001a FFF7FEFF 		bl	SSD1306_command1
 2749              	.LVL225:
 443:Core/Src/USER/oled/ssd1306_oled_i2c.c ****   SSD1306_command1(0X00);
 2750              		.loc 1 443 3 view .LVU647
 2751 001e 0020     		movs	r0, #0
 2752 0020 FFF7FEFF 		bl	SSD1306_command1
 2753              	.LVL226:
 444:Core/Src/USER/oled/ssd1306_oled_i2c.c ****   SSD1306_command1(start);
 2754              		.loc 1 444 3 view .LVU648
 2755 0024 2846     		mov	r0, r5
 2756 0026 FFF7FEFF 		bl	SSD1306_command1
 2757              	.LVL227:
 445:Core/Src/USER/oled/ssd1306_oled_i2c.c ****   SSD1306_command1(0X00);
 2758              		.loc 1 445 3 view .LVU649
 2759 002a 0020     		movs	r0, #0
 2760 002c FFF7FEFF 		bl	SSD1306_command1
 2761              	.LVL228:
 446:Core/Src/USER/oled/ssd1306_oled_i2c.c ****   SSD1306_command1(stop);
 2762              		.loc 1 446 3 view .LVU650
 2763 0030 2046     		mov	r0, r4
 2764 0032 FFF7FEFF 		bl	SSD1306_command1
 2765              	.LVL229:
 447:Core/Src/USER/oled/ssd1306_oled_i2c.c ****   SSD1306_command1(0X01);
 2766              		.loc 1 447 3 view .LVU651
 2767 0036 0120     		movs	r0, #1
 2768 0038 FFF7FEFF 		bl	SSD1306_command1
 2769              	.LVL230:
 448:Core/Src/USER/oled/ssd1306_oled_i2c.c ****   SSD1306_command1(SSD1306_ACTIVATE_SCROLL);
 2770              		.loc 1 448 3 view .LVU652
 2771 003c 2F20     		movs	r0, #47
 2772 003e FFF7FEFF 		bl	SSD1306_command1
ARM GAS  C:\Users\User\AppData\Local\Temp\ccEEhKx4.s 			page 71


 2773              	.LVL231:
 449:Core/Src/USER/oled/ssd1306_oled_i2c.c **** }
 2774              		.loc 1 449 1 is_stmt 0 view .LVU653
 2775 0042 38BD     		pop	{r3, r4, r5, pc}
 2776              		.cfi_endproc
 2777              	.LFE114:
 2779              		.section	.text.user_usb_rx,"ax",%progbits
 2780              		.align	1
 2781              		.global	user_usb_rx
 2782              		.syntax unified
 2783              		.thumb
 2784              		.thumb_func
 2786              	user_usb_rx:
 2787              	.LVL232:
 2788              	.LFB115:
 2789              		.file 5 "Core/Src/USER/user.c"
   1:Core/Src/USER/user.c **** /* ***********************************************
   2:Core/Src/USER/user.c **** **                                              **
   3:Core/Src/USER/user.c **** ** 40mA   RTC clock V1.0 www.vabolis.lt (c)2023 **
   4:Core/Src/USER/user.c **** **                                              **
   5:Core/Src/USER/user.c **** ************************************************ */
   6:Core/Src/USER/user.c **** 
   7:Core/Src/USER/user.c **** #include "user.h"
   8:Core/Src/USER/user.c **** 
   9:Core/Src/USER/user.c **** 
  10:Core/Src/USER/user.c **** #include "rtc.c"
  11:Core/Src/USER/user.c **** #include "circular_buffer.c"
  12:Core/Src/USER/user.c **** #include "oled/ssd1306_oled_i2c.c"
  13:Core/Src/USER/user.c **** 
  14:Core/Src/USER/user.c **** extern IWDG_HandleTypeDef hiwdg;
  15:Core/Src/USER/user.c **** extern RTC_HandleTypeDef hrtc;
  16:Core/Src/USER/user.c **** extern TIM_HandleTypeDef htim1;
  17:Core/Src/USER/user.c **** extern TIM_HandleTypeDef htim2;
  18:Core/Src/USER/user.c **** 
  19:Core/Src/USER/user.c **** unsigned char invertuotas=0;
  20:Core/Src/USER/user.c **** //uint32_t bootsecons;
  21:Core/Src/USER/user.c **** 
  22:Core/Src/USER/user.c **** #define BUFFER_SIZE 64
  23:Core/Src/USER/user.c **** unsigned char testas[BUFFER_SIZE];
  24:Core/Src/USER/user.c **** 
  25:Core/Src/USER/user.c **** CCBuf cc; //struktura
  26:Core/Src/USER/user.c **** 
  27:Core/Src/USER/user.c **** volatile char seconds;
  28:Core/Src/USER/user.c **** volatile char buttons;
  29:Core/Src/USER/user.c **** volatile char old_buttons;
  30:Core/Src/USER/user.c **** volatile char mode;
  31:Core/Src/USER/user.c **** volatile uint16_t start_hour;
  32:Core/Src/USER/user.c **** volatile uint16_t start_minutes;
  33:Core/Src/USER/user.c **** /* program state:
  34:Core/Src/USER/user.c **** 
  35:Core/Src/USER/user.c **** 0- normal,boot, time
  36:Core/Src/USER/user.c **** 1- setup hour
  37:Core/Src/USER/user.c **** 2- setup minutes
  38:Core/Src/USER/user.c **** 3- setup start hour
  39:Core/Src/USER/user.c **** 4- setup start minute
  40:Core/Src/USER/user.c **** 
  41:Core/Src/USER/user.c **** 255-OLED saver
ARM GAS  C:\Users\User\AppData\Local\Temp\ccEEhKx4.s 			page 72


  42:Core/Src/USER/user.c **** */
  43:Core/Src/USER/user.c **** #define MODE_DELAY 30
  44:Core/Src/USER/user.c **** #define SLEEP_DELAY 300
  45:Core/Src/USER/user.c **** 
  46:Core/Src/USER/user.c **** #define ST_H RTC_BKP_DR6
  47:Core/Src/USER/user.c **** #define ST_M RTC_BKP_DR7
  48:Core/Src/USER/user.c **** 
  49:Core/Src/USER/user.c **** volatile unsigned char mode_delay=MODE_DELAY;
  50:Core/Src/USER/user.c **** volatile uint32_t sleep_delay=SLEEP_DELAY;
  51:Core/Src/USER/user.c **** 
  52:Core/Src/USER/user.c **** void user_usb_rx(uint8_t* Buf, uint32_t *Len)
  53:Core/Src/USER/user.c **** {
 2790              		.loc 5 53 1 is_stmt 1 view -0
 2791              		.cfi_startproc
 2792              		@ args = 0, pretend = 0, frame = 0
 2793              		@ frame_needed = 0, uses_anonymous_args = 0
 2794              		.loc 5 53 1 is_stmt 0 view .LVU655
 2795 0000 70B5     		push	{r4, r5, r6, lr}
 2796              	.LCFI60:
 2797              		.cfi_def_cfa_offset 16
 2798              		.cfi_offset 4, -16
 2799              		.cfi_offset 5, -12
 2800              		.cfi_offset 6, -8
 2801              		.cfi_offset 14, -4
 2802 0002 0646     		mov	r6, r0
 2803 0004 0D46     		mov	r5, r1
  54:Core/Src/USER/user.c **** unsigned char i,a;
 2804              		.loc 5 54 1 is_stmt 1 view .LVU656
  55:Core/Src/USER/user.c **** for (i=0;i<*Len;i++)
 2805              		.loc 5 55 1 view .LVU657
 2806              	.LVL233:
 2807              		.loc 5 55 7 is_stmt 0 view .LVU658
 2808 0006 0024     		movs	r4, #0
 2809              		.loc 5 55 1 view .LVU659
 2810 0008 01E0     		b	.L190
 2811              	.LVL234:
 2812              	.L191:
 2813              		.loc 5 55 17 is_stmt 1 discriminator 2 view .LVU660
 2814              		.loc 5 55 18 is_stmt 0 discriminator 2 view .LVU661
 2815 000a 0134     		adds	r4, r4, #1
 2816              	.LVL235:
 2817              		.loc 5 55 18 discriminator 2 view .LVU662
 2818 000c E4B2     		uxtb	r4, r4
 2819              	.LVL236:
 2820              	.L190:
 2821              		.loc 5 55 10 is_stmt 1 discriminator 1 view .LVU663
 2822              		.loc 5 55 12 is_stmt 0 discriminator 1 view .LVU664
 2823 000e 2B68     		ldr	r3, [r5]
 2824              		.loc 5 55 1 discriminator 1 view .LVU665
 2825 0010 9C42     		cmp	r4, r3
 2826 0012 06D2     		bcs	.L194
  56:Core/Src/USER/user.c **** 	{
  57:Core/Src/USER/user.c **** 		a=Buf[i];
 2827              		.loc 5 57 3 is_stmt 1 view .LVU666
 2828              		.loc 5 57 4 is_stmt 0 view .LVU667
 2829 0014 315D     		ldrb	r1, [r6, r4]	@ zero_extendqisi2
 2830              	.LVL237:
ARM GAS  C:\Users\User\AppData\Local\Temp\ccEEhKx4.s 			page 73


  58:Core/Src/USER/user.c **** 		if (a>10) circle_push(&cc , a);
 2831              		.loc 5 58 3 is_stmt 1 view .LVU668
 2832              		.loc 5 58 6 is_stmt 0 view .LVU669
 2833 0016 0A29     		cmp	r1, #10
 2834 0018 F7D9     		bls	.L191
 2835              		.loc 5 58 13 is_stmt 1 discriminator 1 view .LVU670
 2836 001a 0248     		ldr	r0, .L195
 2837 001c FFF7FEFF 		bl	circle_push
 2838              	.LVL238:
 2839              		.loc 5 58 13 is_stmt 0 discriminator 1 view .LVU671
 2840 0020 F3E7     		b	.L191
 2841              	.L194:
  59:Core/Src/USER/user.c **** 	}
  60:Core/Src/USER/user.c **** }
 2842              		.loc 5 60 1 view .LVU672
 2843 0022 70BD     		pop	{r4, r5, r6, pc}
 2844              	.LVL239:
 2845              	.L196:
 2846              		.loc 5 60 1 view .LVU673
 2847              		.align	2
 2848              	.L195:
 2849 0024 00000000 		.word	.LANCHOR8
 2850              		.cfi_endproc
 2851              	.LFE115:
 2853              		.section	.rodata.user_init.str1.4,"aMS",%progbits,1
 2854              		.align	2
 2855              	.LC0:
 2856 0000 5757572E 		.ascii	"WWW.VABOLIS.LT\000"
 2856      5641424F 
 2856      4C49532E 
 2856      4C5400
 2857              		.section	.text.user_init,"ax",%progbits
 2858              		.align	1
 2859              		.global	user_init
 2860              		.syntax unified
 2861              		.thumb
 2862              		.thumb_func
 2864              	user_init:
 2865              	.LFB116:
  61:Core/Src/USER/user.c **** 
  62:Core/Src/USER/user.c **** void user_init(void)
  63:Core/Src/USER/user.c **** {
 2866              		.loc 5 63 1 is_stmt 1 view -0
 2867              		.cfi_startproc
 2868              		@ args = 0, pretend = 0, frame = 0
 2869              		@ frame_needed = 0, uses_anonymous_args = 0
 2870 0000 10B5     		push	{r4, lr}
 2871              	.LCFI61:
 2872              		.cfi_def_cfa_offset 8
 2873              		.cfi_offset 4, -8
 2874              		.cfi_offset 14, -4
  64:Core/Src/USER/user.c **** 	cc.buffer=testas;
 2875              		.loc 5 64 2 view .LVU675
 2876              		.loc 5 64 11 is_stmt 0 view .LVU676
 2877 0002 2C48     		ldr	r0, .L199
 2878 0004 2C4B     		ldr	r3, .L199+4
 2879 0006 0360     		str	r3, [r0]
ARM GAS  C:\Users\User\AppData\Local\Temp\ccEEhKx4.s 			page 74


  65:Core/Src/USER/user.c **** 	circle_reset(&cc,BUFFER_SIZE);			//init circle buffer
 2880              		.loc 5 65 2 is_stmt 1 view .LVU677
 2881 0008 4021     		movs	r1, #64
 2882 000a FFF7FEFF 		bl	circle_reset
 2883              	.LVL240:
  66:Core/Src/USER/user.c **** 
  67:Core/Src/USER/user.c **** 	HAL_IWDG_Refresh(&hiwdg); //watchdogas
 2884              		.loc 5 67 2 view .LVU678
 2885 000e 2B4C     		ldr	r4, .L199+8
 2886 0010 2046     		mov	r0, r4
 2887 0012 FFF7FEFF 		bl	HAL_IWDG_Refresh
 2888              	.LVL241:
  68:Core/Src/USER/user.c **** 
  69:Core/Src/USER/user.c **** 	
  70:Core/Src/USER/user.c **** 	SSD1306_Init();
 2889              		.loc 5 70 2 view .LVU679
 2890 0016 FFF7FEFF 		bl	SSD1306_Init
 2891              	.LVL242:
  71:Core/Src/USER/user.c **** 	HAL_IWDG_Refresh(&hiwdg); //watchdogas
 2892              		.loc 5 71 2 view .LVU680
 2893 001a 2046     		mov	r0, r4
 2894 001c FFF7FEFF 		bl	HAL_IWDG_Refresh
 2895              	.LVL243:
  72:Core/Src/USER/user.c **** 	HAL_Delay(500);
 2896              		.loc 5 72 2 view .LVU681
 2897 0020 4FF4FA70 		mov	r0, #500
 2898 0024 FFF7FEFF 		bl	HAL_Delay
 2899              	.LVL244:
  73:Core/Src/USER/user.c **** 	SSD1306_Init();
 2900              		.loc 5 73 2 view .LVU682
 2901 0028 FFF7FEFF 		bl	SSD1306_Init
 2902              	.LVL245:
  74:Core/Src/USER/user.c **** 	SSD1306_clear(0);
 2903              		.loc 5 74 2 view .LVU683
 2904 002c 0020     		movs	r0, #0
 2905 002e FFF7FEFF 		bl	SSD1306_clear
 2906              	.LVL246:
  75:Core/Src/USER/user.c **** 	SSD1306_move(0,0);
 2907              		.loc 5 75 2 view .LVU684
 2908 0032 0021     		movs	r1, #0
 2909 0034 0846     		mov	r0, r1
 2910 0036 FFF7FEFF 		bl	SSD1306_move
 2911              	.LVL247:
  76:Core/Src/USER/user.c **** 	HAL_IWDG_Refresh(&hiwdg); //watchdogas
 2912              		.loc 5 76 2 view .LVU685
 2913 003a 2046     		mov	r0, r4
 2914 003c FFF7FEFF 		bl	HAL_IWDG_Refresh
 2915              	.LVL248:
  77:Core/Src/USER/user.c **** 
  78:Core/Src/USER/user.c **** 	SSD1306_puts("WWW.VABOLIS.LT");
 2916              		.loc 5 78 2 view .LVU686
 2917 0040 1F48     		ldr	r0, .L199+12
 2918 0042 FFF7FEFF 		bl	SSD1306_puts
 2919              	.LVL249:
  79:Core/Src/USER/user.c **** 	HAL_Delay(500);
 2920              		.loc 5 79 2 view .LVU687
 2921 0046 4FF4FA70 		mov	r0, #500
ARM GAS  C:\Users\User\AppData\Local\Temp\ccEEhKx4.s 			page 75


 2922 004a FFF7FEFF 		bl	HAL_Delay
 2923              	.LVL250:
  80:Core/Src/USER/user.c **** 	SSD1306_dim(1);
 2924              		.loc 5 80 2 view .LVU688
 2925 004e 0120     		movs	r0, #1
 2926 0050 FFF7FEFF 		bl	SSD1306_dim
 2927              	.LVL251:
  81:Core/Src/USER/user.c **** 	HAL_IWDG_Refresh(&hiwdg); //watchdogas
 2928              		.loc 5 81 2 view .LVU689
 2929 0054 2046     		mov	r0, r4
 2930 0056 FFF7FEFF 		bl	HAL_IWDG_Refresh
 2931              	.LVL252:
  82:Core/Src/USER/user.c **** 	HAL_Delay(500);
 2932              		.loc 5 82 2 view .LVU690
 2933 005a 4FF4FA70 		mov	r0, #500
 2934 005e FFF7FEFF 		bl	HAL_Delay
 2935              	.LVL253:
  83:Core/Src/USER/user.c **** 	SSD1306_clear(0);
 2936              		.loc 5 83 2 view .LVU691
 2937 0062 0020     		movs	r0, #0
 2938 0064 FFF7FEFF 		bl	SSD1306_clear
 2939              	.LVL254:
  84:Core/Src/USER/user.c **** 	
  85:Core/Src/USER/user.c **** 	rtc_int_init();
 2940              		.loc 5 85 2 view .LVU692
 2941 0068 FFF7FEFF 		bl	rtc_int_init
 2942              	.LVL255:
  86:Core/Src/USER/user.c **** 		
  87:Core/Src/USER/user.c **** 	HAL_TIM_PWM_Start(&htim1, TIM_CHANNEL_1);
 2943              		.loc 5 87 2 view .LVU693
 2944 006c 154C     		ldr	r4, .L199+16
 2945 006e 0021     		movs	r1, #0
 2946 0070 2046     		mov	r0, r4
 2947 0072 FFF7FEFF 		bl	HAL_TIM_PWM_Start
 2948              	.LVL256:
  88:Core/Src/USER/user.c **** 	HAL_TIM_Base_Start_IT 	(&htim2);
 2949              		.loc 5 88 2 view .LVU694
 2950 0076 1448     		ldr	r0, .L199+20
 2951 0078 FFF7FEFF 		bl	HAL_TIM_Base_Start_IT
 2952              	.LVL257:
  89:Core/Src/USER/user.c **** 	__HAL_TIM_SET_COMPARE(&htim1,TIM_CHANNEL_1,5*255);
 2953              		.loc 5 89 2 view .LVU695
 2954 007c 2368     		ldr	r3, [r4]
 2955 007e 40F2FB42 		movw	r2, #1275
 2956 0082 5A63     		str	r2, [r3, #52]
  90:Core/Src/USER/user.c **** 	//HAL_RTCEx_SetSmoothCalib(&hrtc,0,0,10); // du nuliai nes F1 nera. paskutinis- skaicius 0-7F, tik
  91:Core/Src/USER/user.c **** 
  92:Core/Src/USER/user.c **** 	//RTC_DateTypeDef dienos= {0};
  93:Core/Src/USER/user.c **** 	//HAL_RTC_GetDate(&hrtc, &dienos, RTC_FORMAT_BIN);
  94:Core/Src/USER/user.c **** 	
  95:Core/Src/USER/user.c **** 
  96:Core/Src/USER/user.c ****     HAL_PWR_EnableBkUpAccess();
 2957              		.loc 5 96 5 view .LVU696
 2958 0084 FFF7FEFF 		bl	HAL_PWR_EnableBkUpAccess
 2959              	.LVL258:
  97:Core/Src/USER/user.c **** 	
  98:Core/Src/USER/user.c **** 	
ARM GAS  C:\Users\User\AppData\Local\Temp\ccEEhKx4.s 			page 76


  99:Core/Src/USER/user.c **** 	HAL_RTC_GetTime(&hrtc, &currTime, RTC_FORMAT_BIN);
 2960              		.loc 5 99 2 view .LVU697
 2961 0088 104C     		ldr	r4, .L199+24
 2962 008a 0022     		movs	r2, #0
 2963 008c 1049     		ldr	r1, .L199+28
 2964 008e 2046     		mov	r0, r4
 2965 0090 FFF7FEFF 		bl	HAL_RTC_GetTime
 2966              	.LVL259:
 100:Core/Src/USER/user.c **** 	//bootsecons=currTime.Hours*3600+currTime.Minutes*60+currTime.Seconds+(dienos.Date-1)*86400;
 101:Core/Src/USER/user.c **** 
 102:Core/Src/USER/user.c **** 	start_hour=HAL_RTCEx_BKUPRead(&hrtc,ST_H);
 2967              		.loc 5 102 2 view .LVU698
 2968              		.loc 5 102 13 is_stmt 0 view .LVU699
 2969 0094 0621     		movs	r1, #6
 2970 0096 2046     		mov	r0, r4
 2971 0098 FFF7FEFF 		bl	HAL_RTCEx_BKUPRead
 2972              	.LVL260:
 2973              		.loc 5 102 12 view .LVU700
 2974 009c 80B2     		uxth	r0, r0
 2975 009e 0D4B     		ldr	r3, .L199+32
 2976 00a0 1880     		strh	r0, [r3]	@ movhi
 103:Core/Src/USER/user.c **** 	start_minutes=HAL_RTCEx_BKUPRead(&hrtc,ST_M);
 2977              		.loc 5 103 2 is_stmt 1 view .LVU701
 2978              		.loc 5 103 16 is_stmt 0 view .LVU702
 2979 00a2 0721     		movs	r1, #7
 2980 00a4 2046     		mov	r0, r4
 2981 00a6 FFF7FEFF 		bl	HAL_RTCEx_BKUPRead
 2982              	.LVL261:
 2983              		.loc 5 103 15 view .LVU703
 2984 00aa 80B2     		uxth	r0, r0
 2985 00ac 0A4B     		ldr	r3, .L199+36
 2986 00ae 1880     		strh	r0, [r3]	@ movhi
 104:Core/Src/USER/user.c **** }
 2987              		.loc 5 104 1 view .LVU704
 2988 00b0 10BD     		pop	{r4, pc}
 2989              	.L200:
 2990 00b2 00BF     		.align	2
 2991              	.L199:
 2992 00b4 00000000 		.word	.LANCHOR8
 2993 00b8 00000000 		.word	.LANCHOR9
 2994 00bc 00000000 		.word	.LANCHOR10
 2995 00c0 00000000 		.word	.LC0
 2996 00c4 00000000 		.word	.LANCHOR11
 2997 00c8 00000000 		.word	.LANCHOR12
 2998 00cc 00000000 		.word	.LANCHOR3
 2999 00d0 00000000 		.word	.LANCHOR2
 3000 00d4 00000000 		.word	.LANCHOR13
 3001 00d8 00000000 		.word	.LANCHOR14
 3002              		.cfi_endproc
 3003              	.LFE116:
 3005              		.section	.text.ReadPins,"ax",%progbits
 3006              		.align	1
 3007              		.global	ReadPins
 3008              		.syntax unified
 3009              		.thumb
 3010              		.thumb_func
 3012              	ReadPins:
ARM GAS  C:\Users\User\AppData\Local\Temp\ccEEhKx4.s 			page 77


 3013              	.LFB117:
 105:Core/Src/USER/user.c **** 
 106:Core/Src/USER/user.c **** void ReadPins(void)
 107:Core/Src/USER/user.c **** {
 3014              		.loc 5 107 1 is_stmt 1 view -0
 3015              		.cfi_startproc
 3016              		@ args = 0, pretend = 0, frame = 0
 3017              		@ frame_needed = 0, uses_anonymous_args = 0
 3018 0000 08B5     		push	{r3, lr}
 3019              	.LCFI62:
 3020              		.cfi_def_cfa_offset 8
 3021              		.cfi_offset 3, -8
 3022              		.cfi_offset 14, -4
 108:Core/Src/USER/user.c **** if(!HAL_GPIO_ReadPin(GPIOB, BTN1_Pin)){buttons=buttons | 1;} else {buttons=buttons & 0xFE;}
 3023              		.loc 5 108 1 view .LVU706
 3024              		.loc 5 108 5 is_stmt 0 view .LVU707
 3025 0002 4FF40051 		mov	r1, #8192
 3026 0006 1948     		ldr	r0, .L209
 3027 0008 FFF7FEFF 		bl	HAL_GPIO_ReadPin
 3028              	.LVL262:
 3029              		.loc 5 108 3 view .LVU708
 3030 000c D8B9     		cbnz	r0, .L202
 3031              		.loc 5 108 40 is_stmt 1 discriminator 1 view .LVU709
 3032              		.loc 5 108 47 is_stmt 0 discriminator 1 view .LVU710
 3033 000e 184A     		ldr	r2, .L209+4
 3034 0010 1378     		ldrb	r3, [r2]	@ zero_extendqisi2
 3035 0012 43F00103 		orr	r3, r3, #1
 3036 0016 1370     		strb	r3, [r2]
 3037              	.L203:
 109:Core/Src/USER/user.c **** if(!HAL_GPIO_ReadPin(GPIOB, BTN2_Pin)){buttons=buttons | 2;} else {buttons=buttons & 0xFD;}
 3038              		.loc 5 109 1 is_stmt 1 view .LVU711
 3039              		.loc 5 109 5 is_stmt 0 view .LVU712
 3040 0018 4FF48041 		mov	r1, #16384
 3041 001c 1348     		ldr	r0, .L209
 3042 001e FFF7FEFF 		bl	HAL_GPIO_ReadPin
 3043              	.LVL263:
 3044              		.loc 5 109 3 view .LVU713
 3045 0022 B0B9     		cbnz	r0, .L204
 3046              		.loc 5 109 40 is_stmt 1 discriminator 1 view .LVU714
 3047              		.loc 5 109 47 is_stmt 0 discriminator 1 view .LVU715
 3048 0024 124A     		ldr	r2, .L209+4
 3049 0026 1378     		ldrb	r3, [r2]	@ zero_extendqisi2
 3050 0028 43F00203 		orr	r3, r3, #2
 3051 002c 1370     		strb	r3, [r2]
 3052              	.L205:
 110:Core/Src/USER/user.c **** if(!HAL_GPIO_ReadPin(GPIOB, BTN3_Pin)){buttons=buttons | 4;} else {buttons=buttons & 0xFB;}
 3053              		.loc 5 110 1 is_stmt 1 view .LVU716
 3054              		.loc 5 110 5 is_stmt 0 view .LVU717
 3055 002e 4FF40041 		mov	r1, #32768
 3056 0032 0E48     		ldr	r0, .L209
 3057 0034 FFF7FEFF 		bl	HAL_GPIO_ReadPin
 3058              	.LVL264:
 3059              		.loc 5 110 3 view .LVU718
 3060 0038 88B9     		cbnz	r0, .L206
 3061              		.loc 5 110 40 is_stmt 1 discriminator 1 view .LVU719
 3062              		.loc 5 110 47 is_stmt 0 discriminator 1 view .LVU720
 3063 003a 0D4A     		ldr	r2, .L209+4
ARM GAS  C:\Users\User\AppData\Local\Temp\ccEEhKx4.s 			page 78


 3064 003c 1378     		ldrb	r3, [r2]	@ zero_extendqisi2
 3065 003e 43F00403 		orr	r3, r3, #4
 3066 0042 1370     		strb	r3, [r2]
 3067              	.L201:
 111:Core/Src/USER/user.c **** }
 3068              		.loc 5 111 1 view .LVU721
 3069 0044 08BD     		pop	{r3, pc}
 3070              	.L202:
 108:Core/Src/USER/user.c **** if(!HAL_GPIO_ReadPin(GPIOB, BTN2_Pin)){buttons=buttons | 2;} else {buttons=buttons & 0xFD;}
 3071              		.loc 5 108 68 is_stmt 1 discriminator 2 view .LVU722
 108:Core/Src/USER/user.c **** if(!HAL_GPIO_ReadPin(GPIOB, BTN2_Pin)){buttons=buttons | 2;} else {buttons=buttons & 0xFD;}
 3072              		.loc 5 108 84 is_stmt 0 discriminator 2 view .LVU723
 3073 0046 0A4A     		ldr	r2, .L209+4
 3074 0048 1378     		ldrb	r3, [r2]	@ zero_extendqisi2
 3075 004a 03F0FE03 		and	r3, r3, #254
 108:Core/Src/USER/user.c **** if(!HAL_GPIO_ReadPin(GPIOB, BTN2_Pin)){buttons=buttons | 2;} else {buttons=buttons & 0xFD;}
 3076              		.loc 5 108 75 discriminator 2 view .LVU724
 3077 004e 1370     		strb	r3, [r2]
 3078 0050 E2E7     		b	.L203
 3079              	.L204:
 109:Core/Src/USER/user.c **** if(!HAL_GPIO_ReadPin(GPIOB, BTN3_Pin)){buttons=buttons | 4;} else {buttons=buttons & 0xFB;}
 3080              		.loc 5 109 68 is_stmt 1 discriminator 2 view .LVU725
 109:Core/Src/USER/user.c **** if(!HAL_GPIO_ReadPin(GPIOB, BTN3_Pin)){buttons=buttons | 4;} else {buttons=buttons & 0xFB;}
 3081              		.loc 5 109 84 is_stmt 0 discriminator 2 view .LVU726
 3082 0052 074A     		ldr	r2, .L209+4
 3083 0054 1378     		ldrb	r3, [r2]	@ zero_extendqisi2
 3084 0056 03F0FD03 		and	r3, r3, #253
 109:Core/Src/USER/user.c **** if(!HAL_GPIO_ReadPin(GPIOB, BTN3_Pin)){buttons=buttons | 4;} else {buttons=buttons & 0xFB;}
 3085              		.loc 5 109 75 discriminator 2 view .LVU727
 3086 005a 1370     		strb	r3, [r2]
 3087 005c E7E7     		b	.L205
 3088              	.L206:
 110:Core/Src/USER/user.c **** }
 3089              		.loc 5 110 68 is_stmt 1 discriminator 2 view .LVU728
 110:Core/Src/USER/user.c **** }
 3090              		.loc 5 110 84 is_stmt 0 discriminator 2 view .LVU729
 3091 005e 044A     		ldr	r2, .L209+4
 3092 0060 1378     		ldrb	r3, [r2]	@ zero_extendqisi2
 3093 0062 03F0FB03 		and	r3, r3, #251
 110:Core/Src/USER/user.c **** }
 3094              		.loc 5 110 75 discriminator 2 view .LVU730
 3095 0066 1370     		strb	r3, [r2]
 3096              		.loc 5 111 1 discriminator 2 view .LVU731
 3097 0068 ECE7     		b	.L201
 3098              	.L210:
 3099 006a 00BF     		.align	2
 3100              	.L209:
 3101 006c 000C0140 		.word	1073810432
 3102 0070 00000000 		.word	.LANCHOR15
 3103              		.cfi_endproc
 3104              	.LFE117:
 3106              		.section	.text.set_start_text,"ax",%progbits
 3107              		.align	1
 3108              		.global	set_start_text
 3109              		.syntax unified
 3110              		.thumb
 3111              		.thumb_func
ARM GAS  C:\Users\User\AppData\Local\Temp\ccEEhKx4.s 			page 79


 3113              	set_start_text:
 3114              	.LVL265:
 3115              	.LFB118:
 112:Core/Src/USER/user.c **** 
 113:Core/Src/USER/user.c **** void set_start_text(char * Buf)
 114:Core/Src/USER/user.c **** {
 3116              		.loc 5 114 1 is_stmt 1 view -0
 3117              		.cfi_startproc
 3118              		@ args = 0, pretend = 0, frame = 8
 3119              		@ frame_needed = 0, uses_anonymous_args = 0
 3120              		.loc 5 114 1 is_stmt 0 view .LVU733
 3121 0000 10B5     		push	{r4, lr}
 3122              	.LCFI63:
 3123              		.cfi_def_cfa_offset 8
 3124              		.cfi_offset 4, -8
 3125              		.cfi_offset 14, -4
 3126 0002 82B0     		sub	sp, sp, #8
 3127              	.LCFI64:
 3128              		.cfi_def_cfa_offset 16
 3129 0004 0446     		mov	r4, r0
 115:Core/Src/USER/user.c **** filter_string(Buf);
 3130              		.loc 5 115 1 is_stmt 1 view .LVU734
 3131 0006 FFF7FEFF 		bl	filter_string
 3132              	.LVL266:
 116:Core/Src/USER/user.c **** //09:00
 117:Core/Src/USER/user.c **** 
 118:Core/Src/USER/user.c **** 
 119:Core/Src/USER/user.c **** if(strlen(Buf)<5) return;
 3133              		.loc 5 119 1 view .LVU735
 3134              		.loc 5 119 4 is_stmt 0 view .LVU736
 3135 000a 2046     		mov	r0, r4
 3136 000c FFF7FEFF 		bl	strlen
 3137              	.LVL267:
 3138              		.loc 5 119 3 view .LVU737
 3139 0010 0428     		cmp	r0, #4
 3140 0012 01D8     		bhi	.L215
 3141              	.L211:
 120:Core/Src/USER/user.c **** 	char delim[] = ":";
 121:Core/Src/USER/user.c **** 
 122:Core/Src/USER/user.c **** 	char *ptr = strtok(Buf, delim);
 123:Core/Src/USER/user.c **** 	start_hour=atoi(ptr);
 124:Core/Src/USER/user.c **** 	
 125:Core/Src/USER/user.c **** 	ptr = strtok(NULL, delim);
 126:Core/Src/USER/user.c **** 	start_minutes=atoi(ptr);
 127:Core/Src/USER/user.c **** 	
 128:Core/Src/USER/user.c **** }
 3142              		.loc 5 128 1 view .LVU738
 3143 0014 02B0     		add	sp, sp, #8
 3144              	.LCFI65:
 3145              		.cfi_remember_state
 3146              		.cfi_def_cfa_offset 8
 3147              		@ sp needed
 3148 0016 10BD     		pop	{r4, pc}
 3149              	.LVL268:
 3150              	.L215:
 3151              	.LCFI66:
 3152              		.cfi_restore_state
ARM GAS  C:\Users\User\AppData\Local\Temp\ccEEhKx4.s 			page 80


 120:Core/Src/USER/user.c **** 	char delim[] = ":";
 3153              		.loc 5 120 2 is_stmt 1 view .LVU739
 120:Core/Src/USER/user.c **** 	char delim[] = ":";
 3154              		.loc 5 120 7 is_stmt 0 view .LVU740
 3155 0018 3A23     		movs	r3, #58
 3156 001a ADF80430 		strh	r3, [sp, #4]	@ movhi
 122:Core/Src/USER/user.c **** 	start_hour=atoi(ptr);
 3157              		.loc 5 122 2 is_stmt 1 view .LVU741
 122:Core/Src/USER/user.c **** 	start_hour=atoi(ptr);
 3158              		.loc 5 122 14 is_stmt 0 view .LVU742
 3159 001e 01A9     		add	r1, sp, #4
 3160 0020 2046     		mov	r0, r4
 3161 0022 FFF7FEFF 		bl	strtok
 3162              	.LVL269:
 123:Core/Src/USER/user.c **** 	
 3163              		.loc 5 123 2 is_stmt 1 view .LVU743
 123:Core/Src/USER/user.c **** 	
 3164              		.loc 5 123 13 is_stmt 0 view .LVU744
 3165 0026 FFF7FEFF 		bl	atoi
 3166              	.LVL270:
 123:Core/Src/USER/user.c **** 	
 3167              		.loc 5 123 12 view .LVU745
 3168 002a 80B2     		uxth	r0, r0
 3169 002c 054B     		ldr	r3, .L216
 3170 002e 1880     		strh	r0, [r3]	@ movhi
 125:Core/Src/USER/user.c **** 	start_minutes=atoi(ptr);
 3171              		.loc 5 125 2 is_stmt 1 view .LVU746
 125:Core/Src/USER/user.c **** 	start_minutes=atoi(ptr);
 3172              		.loc 5 125 8 is_stmt 0 view .LVU747
 3173 0030 01A9     		add	r1, sp, #4
 3174 0032 0020     		movs	r0, #0
 3175 0034 FFF7FEFF 		bl	strtok
 3176              	.LVL271:
 126:Core/Src/USER/user.c **** 	
 3177              		.loc 5 126 2 is_stmt 1 view .LVU748
 126:Core/Src/USER/user.c **** 	
 3178              		.loc 5 126 16 is_stmt 0 view .LVU749
 3179 0038 FFF7FEFF 		bl	atoi
 3180              	.LVL272:
 126:Core/Src/USER/user.c **** 	
 3181              		.loc 5 126 15 view .LVU750
 3182 003c 80B2     		uxth	r0, r0
 3183 003e 024B     		ldr	r3, .L216+4
 3184 0040 1880     		strh	r0, [r3]	@ movhi
 3185 0042 E7E7     		b	.L211
 3186              	.L217:
 3187              		.align	2
 3188              	.L216:
 3189 0044 00000000 		.word	.LANCHOR13
 3190 0048 00000000 		.word	.LANCHOR14
 3191              		.cfi_endproc
 3192              	.LFE118:
 3194              		.section	.rodata.show_help.str1.4,"aMS",%progbits,1
 3195              		.align	2
 3196              	.LC1:
 3197 0000 0D0A3F0D 		.ascii	"\015\012?\015\0129h Clock. Use AT commands to setup"
 3197      0A396820 
ARM GAS  C:\Users\User\AppData\Local\Temp\ccEEhKx4.s 			page 81


 3197      436C6F63 
 3197      6B2E2055 
 3197      73652041 
 3198 0027 2E0D0A20 		.ascii	".\015\012 ATT13:00:05 -to setup time. ATT only show"
 3198      41545431 
 3198      333A3030 
 3198      3A303520 
 3198      2D746F20 
 3199 0054 73206375 		.ascii	"s current time.\015\012 ATS09:00 -new start time.\015"
 3199      7272656E 
 3199      74207469 
 3199      6D652E0D 
 3199      0A204154 
 3200 0080 0A204154 		.ascii	"\012 ATI -information.\015\012 ATAxxx -debug PWM.\015"
 3200      49202D69 
 3200      6E666F72 
 3200      6D617469 
 3200      6F6E2E0D 
 3201 00a9 0A00     		.ascii	"\012\000"
 3202              		.section	.text.show_help,"ax",%progbits
 3203              		.align	1
 3204              		.global	show_help
 3205              		.syntax unified
 3206              		.thumb
 3207              		.thumb_func
 3209              	show_help:
 3210              	.LFB119:
 129:Core/Src/USER/user.c **** 
 130:Core/Src/USER/user.c **** void show_help(void)
 131:Core/Src/USER/user.c **** {
 3211              		.loc 5 131 1 is_stmt 1 view -0
 3212              		.cfi_startproc
 3213              		@ args = 0, pretend = 0, frame = 176
 3214              		@ frame_needed = 0, uses_anonymous_args = 0
 3215 0000 00B5     		push	{lr}
 3216              	.LCFI67:
 3217              		.cfi_def_cfa_offset 4
 3218              		.cfi_offset 14, -4
 3219 0002 ADB0     		sub	sp, sp, #180
 3220              	.LCFI68:
 3221              		.cfi_def_cfa_offset 184
 132:Core/Src/USER/user.c **** char txt[]="\r\n?\r\n9h Clock. Use AT commands to setup.\r\n ATT13:00:05 -to setup time. ATT only s
 3222              		.loc 5 132 1 view .LVU752
 3223              		.loc 5 132 6 is_stmt 0 view .LVU753
 3224 0004 AB22     		movs	r2, #171
 3225 0006 0749     		ldr	r1, .L220
 3226 0008 01A8     		add	r0, sp, #4
 3227 000a FFF7FEFF 		bl	memcpy
 3228              	.LVL273:
 133:Core/Src/USER/user.c **** CDC_Transmit_FS((uint8_t*) txt,strlen(txt));
 3229              		.loc 5 133 1 is_stmt 1 view .LVU754
 3230              		.loc 5 133 32 is_stmt 0 view .LVU755
 3231 000e 01A8     		add	r0, sp, #4
 3232 0010 FFF7FEFF 		bl	strlen
 3233              	.LVL274:
 3234              		.loc 5 133 1 view .LVU756
 3235 0014 81B2     		uxth	r1, r0
ARM GAS  C:\Users\User\AppData\Local\Temp\ccEEhKx4.s 			page 82


 3236 0016 01A8     		add	r0, sp, #4
 3237 0018 FFF7FEFF 		bl	CDC_Transmit_FS
 3238              	.LVL275:
 134:Core/Src/USER/user.c **** }
 3239              		.loc 5 134 1 view .LVU757
 3240 001c 2DB0     		add	sp, sp, #180
 3241              	.LCFI69:
 3242              		.cfi_def_cfa_offset 4
 3243              		@ sp needed
 3244 001e 5DF804FB 		ldr	pc, [sp], #4
 3245              	.L221:
 3246 0022 00BF     		.align	2
 3247              	.L220:
 3248 0024 00000000 		.word	.LC1
 3249              		.cfi_endproc
 3250              	.LFE119:
 3252              		.section	.text.Write_Start_stop,"ax",%progbits
 3253              		.align	1
 3254              		.global	Write_Start_stop
 3255              		.syntax unified
 3256              		.thumb
 3257              		.thumb_func
 3259              	Write_Start_stop:
 3260              	.LFB123:
 135:Core/Src/USER/user.c **** 
 136:Core/Src/USER/user.c **** void commandcom(char * txt) // network (UART,USB) command interpreter
 137:Core/Src/USER/user.c **** {
 138:Core/Src/USER/user.c **** 
 139:Core/Src/USER/user.c **** if (txt[0] !='A' || txt[1]!='T') return;
 140:Core/Src/USER/user.c **** 
 141:Core/Src/USER/user.c **** 	switch(txt[2])
 142:Core/Src/USER/user.c **** 	{
 143:Core/Src/USER/user.c **** 		case 'T':
 144:Core/Src/USER/user.c **** 			rtc_set_time_text(txt+3);
 145:Core/Src/USER/user.c **** 			rtc_time_string(txt); txt[8]='\r'; txt[9]='\n';
 146:Core/Src/USER/user.c **** 			CDC_Transmit_FS((uint8_t*) txt,10);
 147:Core/Src/USER/user.c **** 		break;
 148:Core/Src/USER/user.c **** 		case 'D':
 149:Core/Src/USER/user.c **** 			//rtc_set_date_text(txt+3);	
 150:Core/Src/USER/user.c **** 			//rtc_date_string(txt); txt[8]='\r'; txt[9]='\n';
 151:Core/Src/USER/user.c **** 			//CDC_Transmit_FS((uint8_t*) txt,10);
 152:Core/Src/USER/user.c **** 		break; 
 153:Core/Src/USER/user.c **** 		case 'I':
 154:Core/Src/USER/user.c **** 			CDC_Transmit_FS((uint8_t*) "9H CLOCK\r\n(c)2023 Vabolis.lt\r\n ",30);
 155:Core/Src/USER/user.c **** 		break;
 156:Core/Src/USER/user.c **** 		case 'S':
 157:Core/Src/USER/user.c **** 			set_start_text(txt+3);
 158:Core/Src/USER/user.c **** 			Write_Start_stop();
 159:Core/Src/USER/user.c **** 			
 160:Core/Src/USER/user.c **** 			CDC_Transmit_FS((uint8_t*) "New start time set.\r\n ",21);
 161:Core/Src/USER/user.c **** 		break;
 162:Core/Src/USER/user.c **** 		case 'A':
 163:Core/Src/USER/user.c **** 			__disable_irq();
 164:Core/Src/USER/user.c **** 			HAL_IWDG_Refresh(&hiwdg);
 165:Core/Src/USER/user.c **** 			__HAL_TIM_SET_COMPARE(&htim1,TIM_CHANNEL_1,atoi(txt+3));
 166:Core/Src/USER/user.c **** 			HAL_Delay(1000);
 167:Core/Src/USER/user.c **** 			HAL_IWDG_Refresh(&hiwdg);
ARM GAS  C:\Users\User\AppData\Local\Temp\ccEEhKx4.s 			page 83


 168:Core/Src/USER/user.c **** 			HAL_Delay(1000);
 169:Core/Src/USER/user.c **** 			HAL_IWDG_Refresh(&hiwdg);
 170:Core/Src/USER/user.c **** 			__enable_irq();
 171:Core/Src/USER/user.c **** 		break;
 172:Core/Src/USER/user.c **** 		default:
 173:Core/Src/USER/user.c **** 			show_help();
 174:Core/Src/USER/user.c **** 		break;
 175:Core/Src/USER/user.c **** 	}
 176:Core/Src/USER/user.c **** 	//CDC_Transmit_FS((uint8_t*) "\r\n",2);
 177:Core/Src/USER/user.c **** 	mode=0;
 178:Core/Src/USER/user.c **** 	mode_delay=MODE_DELAY;
 179:Core/Src/USER/user.c **** 	sleep_delay=SLEEP_DELAY;
 180:Core/Src/USER/user.c **** 	SSD1306_command1(SSD1306_DISPLAYON);
 181:Core/Src/USER/user.c **** 	old_buttons=255;
 182:Core/Src/USER/user.c **** }
 183:Core/Src/USER/user.c **** 
 184:Core/Src/USER/user.c **** 
 185:Core/Src/USER/user.c **** void user_loop(void)
 186:Core/Src/USER/user.c **** {
 187:Core/Src/USER/user.c **** char a;
 188:Core/Src/USER/user.c **** char txt[32];
 189:Core/Src/USER/user.c **** unsigned char txtp=0;
 190:Core/Src/USER/user.c **** 
 191:Core/Src/USER/user.c **** while(1)
 192:Core/Src/USER/user.c **** 	{
 193:Core/Src/USER/user.c **** 	HAL_IWDG_Refresh(&hiwdg); //watchdogas
 194:Core/Src/USER/user.c **** 	while(circle_available(&cc)>0) 
 195:Core/Src/USER/user.c **** 		{
 196:Core/Src/USER/user.c **** 			a=circle_pull(&cc);
 197:Core/Src/USER/user.c **** 			
 198:Core/Src/USER/user.c **** 			if (a>=' ' && a<='z')
 199:Core/Src/USER/user.c **** 			{
 200:Core/Src/USER/user.c **** 				txt[txtp]=a;
 201:Core/Src/USER/user.c **** 				txtp++;
 202:Core/Src/USER/user.c **** 				txt[txtp]=0;
 203:Core/Src/USER/user.c **** 				if (txtp >30) {txtp=0;}
 204:Core/Src/USER/user.c **** 			}
 205:Core/Src/USER/user.c **** 			else if (a<' ')
 206:Core/Src/USER/user.c **** 			{
 207:Core/Src/USER/user.c **** 				if (txtp>2)commandcom(txt);
 208:Core/Src/USER/user.c **** 				txt[0]=0;
 209:Core/Src/USER/user.c **** 				txtp=0;
 210:Core/Src/USER/user.c **** 			}
 211:Core/Src/USER/user.c **** 		}
 212:Core/Src/USER/user.c **** 	}
 213:Core/Src/USER/user.c **** } /* be isejimo is loop! */
 214:Core/Src/USER/user.c **** 
 215:Core/Src/USER/user.c **** 
 216:Core/Src/USER/user.c **** 
 217:Core/Src/USER/user.c **** void user_seconds_job(void)
 218:Core/Src/USER/user.c **** {
 219:Core/Src/USER/user.c **** uint32_t nowseconds, starttime,pwm;
 220:Core/Src/USER/user.c **** 	show_time();
 221:Core/Src/USER/user.c **** 	nowseconds=currTime.Hours*3600+currTime.Minutes*60+currTime.Seconds; //+(dienos.Date-1)*86400;
 222:Core/Src/USER/user.c **** 	starttime=start_hour*3600+start_minutes*60; //+(dienos.Date-1)*86400;
 223:Core/Src/USER/user.c **** 	
 224:Core/Src/USER/user.c **** 	
ARM GAS  C:\Users\User\AppData\Local\Temp\ccEEhKx4.s 			page 84


 225:Core/Src/USER/user.c **** 	if ((nowseconds > starttime) && (nowseconds < starttime+32400))
 226:Core/Src/USER/user.c **** 		{
 227:Core/Src/USER/user.c **** 		pwm=32400+starttime-nowseconds; //9h+starttime-now. Reziuose gaunasi 32400-0
 228:Core/Src/USER/user.c **** 		
 229:Core/Src/USER/user.c **** 		
 230:Core/Src/USER/user.c **** 		}
 231:Core/Src/USER/user.c **** 		else
 232:Core/Src/USER/user.c **** 		{
 233:Core/Src/USER/user.c **** 		pwm=0;
 234:Core/Src/USER/user.c **** 		}
 235:Core/Src/USER/user.c **** 		
 236:Core/Src/USER/user.c **** 
 237:Core/Src/USER/user.c **** __HAL_TIM_SET_COMPARE(&htim1,TIM_CHANNEL_1,pwm);
 238:Core/Src/USER/user.c **** }
 239:Core/Src/USER/user.c **** 
 240:Core/Src/USER/user.c **** void Write_Start_stop(void)
 241:Core/Src/USER/user.c **** {
 3261              		.loc 5 241 1 is_stmt 1 view -0
 3262              		.cfi_startproc
 3263              		@ args = 0, pretend = 0, frame = 8
 3264              		@ frame_needed = 0, uses_anonymous_args = 0
 3265 0000 10B5     		push	{r4, lr}
 3266              	.LCFI70:
 3267              		.cfi_def_cfa_offset 8
 3268              		.cfi_offset 4, -8
 3269              		.cfi_offset 14, -4
 3270 0002 82B0     		sub	sp, sp, #8
 3271              	.LCFI71:
 3272              		.cfi_def_cfa_offset 16
 242:Core/Src/USER/user.c **** 	HAL_PWR_EnableBkUpAccess();
 3273              		.loc 5 242 2 view .LVU759
 3274 0004 FFF7FEFF 		bl	HAL_PWR_EnableBkUpAccess
 3275              	.LVL276:
 243:Core/Src/USER/user.c ****     __HAL_RCC_BKP_CLK_ENABLE(); //sitas neinicializuotas!
 3276              		.loc 5 243 5 view .LVU760
 3277              	.LBB34:
 3278              		.loc 5 243 5 view .LVU761
 3279              		.loc 5 243 5 view .LVU762
 3280 0008 0D4B     		ldr	r3, .L224
 3281 000a DA69     		ldr	r2, [r3, #28]
 3282 000c 42F00062 		orr	r2, r2, #134217728
 3283 0010 DA61     		str	r2, [r3, #28]
 3284              		.loc 5 243 5 view .LVU763
 3285 0012 DB69     		ldr	r3, [r3, #28]
 3286 0014 03F00063 		and	r3, r3, #134217728
 3287 0018 0193     		str	r3, [sp, #4]
 3288              		.loc 5 243 5 view .LVU764
 3289 001a 019B     		ldr	r3, [sp, #4]
 3290              	.LBE34:
 3291              		.loc 5 243 5 view .LVU765
 244:Core/Src/USER/user.c **** 
 245:Core/Src/USER/user.c **** HAL_RTCEx_BKUPWrite(&hrtc, ST_H, start_hour);
 3292              		.loc 5 245 1 view .LVU766
 3293 001c 094B     		ldr	r3, .L224+4
 3294 001e 1A88     		ldrh	r2, [r3]
 3295 0020 094C     		ldr	r4, .L224+8
 3296 0022 92B2     		uxth	r2, r2
ARM GAS  C:\Users\User\AppData\Local\Temp\ccEEhKx4.s 			page 85


 3297 0024 0621     		movs	r1, #6
 3298 0026 2046     		mov	r0, r4
 3299 0028 FFF7FEFF 		bl	HAL_RTCEx_BKUPWrite
 3300              	.LVL277:
 246:Core/Src/USER/user.c **** HAL_RTCEx_BKUPWrite(&hrtc, ST_M, start_minutes);
 3301              		.loc 5 246 1 view .LVU767
 3302 002c 074B     		ldr	r3, .L224+12
 3303 002e 1A88     		ldrh	r2, [r3]
 3304 0030 92B2     		uxth	r2, r2
 3305 0032 0721     		movs	r1, #7
 3306 0034 2046     		mov	r0, r4
 3307 0036 FFF7FEFF 		bl	HAL_RTCEx_BKUPWrite
 3308              	.LVL278:
 247:Core/Src/USER/user.c **** //HAL_PWR_DisableBkUpAccess();
 248:Core/Src/USER/user.c **** }
 3309              		.loc 5 248 1 is_stmt 0 view .LVU768
 3310 003a 02B0     		add	sp, sp, #8
 3311              	.LCFI72:
 3312              		.cfi_def_cfa_offset 8
 3313              		@ sp needed
 3314 003c 10BD     		pop	{r4, pc}
 3315              	.L225:
 3316 003e 00BF     		.align	2
 3317              	.L224:
 3318 0040 00100240 		.word	1073876992
 3319 0044 00000000 		.word	.LANCHOR13
 3320 0048 00000000 		.word	.LANCHOR3
 3321 004c 00000000 		.word	.LANCHOR14
 3322              		.cfi_endproc
 3323              	.LFE123:
 3325              		.section	.text.show_time,"ax",%progbits
 3326              		.align	1
 3327              		.global	show_time
 3328              		.syntax unified
 3329              		.thumb
 3330              		.thumb_func
 3332              	show_time:
 3333              	.LFB125:
 249:Core/Src/USER/user.c **** 
 250:Core/Src/USER/user.c **** void HAL_TIM_PeriodElapsedCallback(TIM_HandleTypeDef *htim)  //2Hz?
 251:Core/Src/USER/user.c **** {
 252:Core/Src/USER/user.c **** char text[5];
 253:Core/Src/USER/user.c **** unsigned char tmp;
 254:Core/Src/USER/user.c **** 
 255:Core/Src/USER/user.c ****   if (htim == &htim2 )
 256:Core/Src/USER/user.c ****   {
 257:Core/Src/USER/user.c ****   	ReadPins();
 258:Core/Src/USER/user.c **** 	HAL_GPIO_TogglePin(GPIOA, LED_Pin);
 259:Core/Src/USER/user.c **** 	if (buttons==0 && mode_delay>0) {mode_delay--;}
 260:Core/Src/USER/user.c **** 	if (mode_delay==1) {mode=0; SSD1306_move(3,0); SSD1306_puts("                "); mode_delay=0; sle
 261:Core/Src/USER/user.c **** 	if (mode_delay==0 && sleep_delay>0) {sleep_delay--;}
 262:Core/Src/USER/user.c **** 	if (sleep_delay==0) {mode=5; SSD1306_command1(SSD1306_DISPLAYOFF);}
 263:Core/Src/USER/user.c **** 	if (buttons != old_buttons)
 264:Core/Src/USER/user.c **** 		{
 265:Core/Src/USER/user.c **** 		old_buttons=buttons;	
 266:Core/Src/USER/user.c **** 		
 267:Core/Src/USER/user.c **** 		text[2]=' ';
ARM GAS  C:\Users\User\AppData\Local\Temp\ccEEhKx4.s 			page 86


 268:Core/Src/USER/user.c **** 		text[3]=' ';
 269:Core/Src/USER/user.c **** 		text[4]=0;
 270:Core/Src/USER/user.c **** 		
 271:Core/Src/USER/user.c **** 		if (buttons==1)
 272:Core/Src/USER/user.c **** 			{
 273:Core/Src/USER/user.c **** 			mode++;
 274:Core/Src/USER/user.c **** 			mode_delay=MODE_DELAY;
 275:Core/Src/USER/user.c **** 			sleep_delay=SLEEP_DELAY;
 276:Core/Src/USER/user.c **** 			if (mode>4) {mode=0; SSD1306_command1(SSD1306_DISPLAYON);}
 277:Core/Src/USER/user.c **** 			}
 278:Core/Src/USER/user.c **** 		else if (buttons==7) {HAL_RTC_GetTime(&hrtc, &currTime, RTC_FORMAT_BIN); mode=0; currTime.Seconds
 279:Core/Src/USER/user.c **** 			//########## 
 280:Core/Src/USER/user.c **** 		else {
 281:Core/Src/USER/user.c **** 			switch( mode ) 
 282:Core/Src/USER/user.c **** 				{
 283:Core/Src/USER/user.c **** 					case 0x00: //normal mode
 284:Core/Src/USER/user.c **** 					SSD1306_move(3,0); SSD1306_puts("                ");
 285:Core/Src/USER/user.c **** 					break;
 286:Core/Src/USER/user.c **** 					case 0x01: //setup hour
 287:Core/Src/USER/user.c **** 						
 288:Core/Src/USER/user.c **** 						__disable_irq();
 289:Core/Src/USER/user.c **** 						HAL_RTC_GetTime(&hrtc, &currTime, RTC_FORMAT_BIN);
 290:Core/Src/USER/user.c **** 						if(buttons==2) {
 291:Core/Src/USER/user.c **** 											tmp=currTime.Hours;
 292:Core/Src/USER/user.c **** 											tmp++; if (tmp>23) tmp=0;
 293:Core/Src/USER/user.c **** 											currTime.Hours=(uint8_t)tmp;
 294:Core/Src/USER/user.c **** 											HAL_RTC_SetTime(&hrtc, &currTime, RTC_FORMAT_BIN);
 295:Core/Src/USER/user.c **** 											show_time(); mode_delay=MODE_DELAY;
 296:Core/Src/USER/user.c **** 										}
 297:Core/Src/USER/user.c **** 						if(buttons==4) {
 298:Core/Src/USER/user.c **** 											tmp=currTime.Hours;
 299:Core/Src/USER/user.c **** 											tmp--;
 300:Core/Src/USER/user.c **** 											if(tmp == 255) {tmp=23;}
 301:Core/Src/USER/user.c **** 											currTime.Hours=(uint8_t)tmp;
 302:Core/Src/USER/user.c **** 											HAL_RTC_SetTime(&hrtc, &currTime, RTC_FORMAT_BIN);
 303:Core/Src/USER/user.c **** 											show_time(); mode_delay=MODE_DELAY;
 304:Core/Src/USER/user.c **** 										}
 305:Core/Src/USER/user.c **** 						SSD1306_move(3,0); SSD1306_puts("Setting hours ");
 306:Core/Src/USER/user.c **** 						__enable_irq();
 307:Core/Src/USER/user.c **** 					break;
 308:Core/Src/USER/user.c **** 					case 0x02: //setup minute
 309:Core/Src/USER/user.c **** 						__disable_irq();
 310:Core/Src/USER/user.c **** 						HAL_RTC_GetTime(&hrtc, &currTime, RTC_FORMAT_BIN);
 311:Core/Src/USER/user.c **** 						if(buttons==2) {
 312:Core/Src/USER/user.c **** 											tmp=currTime.Minutes;
 313:Core/Src/USER/user.c **** 											tmp++; if(tmp>59) tmp=0;
 314:Core/Src/USER/user.c **** 											currTime.Minutes=(uint8_t)tmp;
 315:Core/Src/USER/user.c **** 											HAL_RTC_SetTime(&hrtc, &currTime, RTC_FORMAT_BIN);
 316:Core/Src/USER/user.c **** 											show_time(); mode_delay=MODE_DELAY;
 317:Core/Src/USER/user.c **** 										}
 318:Core/Src/USER/user.c **** 						if(buttons==4) {
 319:Core/Src/USER/user.c **** 											tmp=currTime.Minutes;
 320:Core/Src/USER/user.c **** 											tmp--; if(tmp ==255 ) {tmp=59;}
 321:Core/Src/USER/user.c **** 											currTime.Minutes=(uint8_t)tmp;
 322:Core/Src/USER/user.c **** 											HAL_RTC_SetTime(&hrtc, &currTime, RTC_FORMAT_BIN);
 323:Core/Src/USER/user.c **** 											show_time(); mode_delay=MODE_DELAY;
 324:Core/Src/USER/user.c **** 										}
ARM GAS  C:\Users\User\AppData\Local\Temp\ccEEhKx4.s 			page 87


 325:Core/Src/USER/user.c **** 						SSD1306_move(3,0); SSD1306_puts("Setting mins  ");
 326:Core/Src/USER/user.c **** 						__enable_irq();
 327:Core/Src/USER/user.c **** 					break;
 328:Core/Src/USER/user.c **** 					case 0x03: //setup start hour
 329:Core/Src/USER/user.c **** 					__disable_irq();
 330:Core/Src/USER/user.c **** 						if(buttons==2) {
 331:Core/Src/USER/user.c **** 											start_hour++;
 332:Core/Src/USER/user.c **** 											if (start_hour > 23) {tmp=0;}
 333:Core/Src/USER/user.c **** 											Write_Start_stop();
 334:Core/Src/USER/user.c **** 											mode_delay=MODE_DELAY;
 335:Core/Src/USER/user.c **** 										}
 336:Core/Src/USER/user.c **** 						else if(buttons==4) {
 337:Core/Src/USER/user.c **** 											start_hour--;
 338:Core/Src/USER/user.c **** 											if(start_hour > 25) {tmp=23;}
 339:Core/Src/USER/user.c **** 											Write_Start_stop();
 340:Core/Src/USER/user.c **** 											mode_delay=MODE_DELAY;
 341:Core/Src/USER/user.c **** 										}
 342:Core/Src/USER/user.c **** 						text[0]=start_hour/10+'0'; text[1]=start_hour % 10+'0';
 343:Core/Src/USER/user.c **** 						SSD1306_move(3,0); SSD1306_puts("Start hour:"); SSD1306_puts(text);
 344:Core/Src/USER/user.c **** 						__enable_irq();
 345:Core/Src/USER/user.c **** 					break;
 346:Core/Src/USER/user.c **** 					case 0x04: //setup start minute
 347:Core/Src/USER/user.c **** 					__disable_irq();
 348:Core/Src/USER/user.c **** 						if(buttons==2) {
 349:Core/Src/USER/user.c **** 											start_minutes++;
 350:Core/Src/USER/user.c **** 											if (start_minutes > 59) {start_minutes=0;}
 351:Core/Src/USER/user.c **** 											Write_Start_stop();
 352:Core/Src/USER/user.c **** 											mode_delay=MODE_DELAY;
 353:Core/Src/USER/user.c **** 										}
 354:Core/Src/USER/user.c **** 						else if(buttons==4) {
 355:Core/Src/USER/user.c **** 											start_minutes--;
 356:Core/Src/USER/user.c **** 											if(start_minutes > 60) {start_minutes=59;}
 357:Core/Src/USER/user.c **** 											Write_Start_stop();
 358:Core/Src/USER/user.c **** 											mode_delay=MODE_DELAY;
 359:Core/Src/USER/user.c **** 										}
 360:Core/Src/USER/user.c **** 						text[0]=start_minutes/10+'0'; text[1]=start_minutes % 10+'0';
 361:Core/Src/USER/user.c **** 						SSD1306_move(3,0); SSD1306_puts("Start min:"); SSD1306_puts(text);
 362:Core/Src/USER/user.c **** 						__enable_irq();
 363:Core/Src/USER/user.c **** 					break;
 364:Core/Src/USER/user.c **** 					case 0x05: //xxx
 365:Core/Src/USER/user.c **** 					break;
 366:Core/Src/USER/user.c **** 				}
 367:Core/Src/USER/user.c **** 			}
 368:Core/Src/USER/user.c **** 		}
 369:Core/Src/USER/user.c ****   }
 370:Core/Src/USER/user.c **** }
 371:Core/Src/USER/user.c **** 
 372:Core/Src/USER/user.c **** 
 373:Core/Src/USER/user.c **** 
 374:Core/Src/USER/user.c **** void show_time(void)
 375:Core/Src/USER/user.c **** {
 3334              		.loc 5 375 1 is_stmt 1 view -0
 3335              		.cfi_startproc
 3336              		@ args = 0, pretend = 0, frame = 8
 3337              		@ frame_needed = 0, uses_anonymous_args = 0
 3338 0000 70B5     		push	{r4, r5, r6, lr}
 3339              	.LCFI73:
ARM GAS  C:\Users\User\AppData\Local\Temp\ccEEhKx4.s 			page 88


 3340              		.cfi_def_cfa_offset 16
 3341              		.cfi_offset 4, -16
 3342              		.cfi_offset 5, -12
 3343              		.cfi_offset 6, -8
 3344              		.cfi_offset 14, -4
 3345 0002 82B0     		sub	sp, sp, #8
 3346              	.LCFI74:
 3347              		.cfi_def_cfa_offset 24
 376:Core/Src/USER/user.c **** unsigned char font[]={0x00, 0x00, 0xe7, 0xe7, 0xe7, 0xe7, 0x00, 0x00};
 3348              		.loc 5 376 1 view .LVU770
 3349              		.loc 5 376 15 is_stmt 0 view .LVU771
 3350 0004 2E4B     		ldr	r3, .L228
 3351 0006 6E46     		mov	r6, sp
 3352 0008 93E80300 		ldm	r3, {r0, r1}
 3353 000c 86E80300 		stm	r6, {r0, r1}
 377:Core/Src/USER/user.c **** 
 378:Core/Src/USER/user.c **** HAL_RTC_GetTime(&hrtc, &currTime, RTC_FORMAT_BIN);
 3354              		.loc 5 378 1 is_stmt 1 view .LVU772
 3355 0010 2C4D     		ldr	r5, .L228+4
 3356 0012 0022     		movs	r2, #0
 3357 0014 2946     		mov	r1, r5
 3358 0016 2C48     		ldr	r0, .L228+8
 3359 0018 FFF7FEFF 		bl	HAL_RTC_GetTime
 3360              	.LVL279:
 379:Core/Src/USER/user.c **** 
 380:Core/Src/USER/user.c **** SSD1306_bigdigit(0,1+0,currTime.Hours/10);
 3361              		.loc 5 380 1 view .LVU773
 3362              		.loc 5 380 32 is_stmt 0 view .LVU774
 3363 001c 2A78     		ldrb	r2, [r5]	@ zero_extendqisi2
 3364              		.loc 5 380 1 view .LVU775
 3365 001e 2B4C     		ldr	r4, .L228+12
 3366 0020 A4FB0232 		umull	r3, r2, r4, r2
 3367 0024 D208     		lsrs	r2, r2, #3
 3368 0026 0121     		movs	r1, #1
 3369 0028 0020     		movs	r0, #0
 3370 002a FFF7FEFF 		bl	SSD1306_bigdigit
 3371              	.LVL280:
 381:Core/Src/USER/user.c **** SSD1306_bigdigit(0,1+2,currTime.Hours%10);
 3372              		.loc 5 381 1 is_stmt 1 view .LVU776
 3373              		.loc 5 381 32 is_stmt 0 view .LVU777
 3374 002e 2A78     		ldrb	r2, [r5]	@ zero_extendqisi2
 3375              		.loc 5 381 1 view .LVU778
 3376 0030 A4FB0213 		umull	r1, r3, r4, r2
 3377 0034 DB08     		lsrs	r3, r3, #3
 3378 0036 03EB8303 		add	r3, r3, r3, lsl #2
 3379 003a 5900     		lsls	r1, r3, #1
 3380 003c 521A     		subs	r2, r2, r1
 3381 003e D2B2     		uxtb	r2, r2
 3382 0040 0321     		movs	r1, #3
 3383 0042 0020     		movs	r0, #0
 3384 0044 FFF7FEFF 		bl	SSD1306_bigdigit
 3385              	.LVL281:
 382:Core/Src/USER/user.c **** SSD1306_bigdigit(0,1+5,currTime.Minutes/10);
 3386              		.loc 5 382 1 is_stmt 1 view .LVU779
 3387              		.loc 5 382 32 is_stmt 0 view .LVU780
 3388 0048 6A78     		ldrb	r2, [r5, #1]	@ zero_extendqisi2
 3389              		.loc 5 382 1 view .LVU781
ARM GAS  C:\Users\User\AppData\Local\Temp\ccEEhKx4.s 			page 89


 3390 004a A4FB0232 		umull	r3, r2, r4, r2
 3391 004e D208     		lsrs	r2, r2, #3
 3392 0050 0621     		movs	r1, #6
 3393 0052 0020     		movs	r0, #0
 3394 0054 FFF7FEFF 		bl	SSD1306_bigdigit
 3395              	.LVL282:
 383:Core/Src/USER/user.c **** SSD1306_bigdigit(0,1+7,currTime.Minutes%10);
 3396              		.loc 5 383 1 is_stmt 1 view .LVU782
 3397              		.loc 5 383 32 is_stmt 0 view .LVU783
 3398 0058 6A78     		ldrb	r2, [r5, #1]	@ zero_extendqisi2
 3399              		.loc 5 383 1 view .LVU784
 3400 005a A4FB0213 		umull	r1, r3, r4, r2
 3401 005e DB08     		lsrs	r3, r3, #3
 3402 0060 03EB8303 		add	r3, r3, r3, lsl #2
 3403 0064 5900     		lsls	r1, r3, #1
 3404 0066 521A     		subs	r2, r2, r1
 3405 0068 D2B2     		uxtb	r2, r2
 3406 006a 0821     		movs	r1, #8
 3407 006c 0020     		movs	r0, #0
 3408 006e FFF7FEFF 		bl	SSD1306_bigdigit
 3409              	.LVL283:
 384:Core/Src/USER/user.c **** SSD1306_bigdigit(0,1+10,currTime.Seconds/10);
 3410              		.loc 5 384 1 is_stmt 1 view .LVU785
 3411              		.loc 5 384 33 is_stmt 0 view .LVU786
 3412 0072 AA78     		ldrb	r2, [r5, #2]	@ zero_extendqisi2
 3413              		.loc 5 384 1 view .LVU787
 3414 0074 A4FB0232 		umull	r3, r2, r4, r2
 3415 0078 D208     		lsrs	r2, r2, #3
 3416 007a 0B21     		movs	r1, #11
 3417 007c 0020     		movs	r0, #0
 3418 007e FFF7FEFF 		bl	SSD1306_bigdigit
 3419              	.LVL284:
 385:Core/Src/USER/user.c **** SSD1306_bigdigit(0,1+12,currTime.Seconds%10);
 3420              		.loc 5 385 1 is_stmt 1 view .LVU788
 3421              		.loc 5 385 33 is_stmt 0 view .LVU789
 3422 0082 AA78     		ldrb	r2, [r5, #2]	@ zero_extendqisi2
 3423              		.loc 5 385 1 view .LVU790
 3424 0084 A4FB0234 		umull	r3, r4, r4, r2
 3425 0088 E408     		lsrs	r4, r4, #3
 3426 008a 04EB8404 		add	r4, r4, r4, lsl #2
 3427 008e 6300     		lsls	r3, r4, #1
 3428 0090 D21A     		subs	r2, r2, r3
 3429 0092 D2B2     		uxtb	r2, r2
 3430 0094 0D21     		movs	r1, #13
 3431 0096 0020     		movs	r0, #0
 3432 0098 FFF7FEFF 		bl	SSD1306_bigdigit
 3433              	.LVL285:
 386:Core/Src/USER/user.c **** 
 387:Core/Src/USER/user.c **** SSD1306_move(1, 1+4);
 3434              		.loc 5 387 1 is_stmt 1 view .LVU791
 3435 009c 0521     		movs	r1, #5
 3436 009e 0120     		movs	r0, #1
 3437 00a0 FFF7FEFF 		bl	SSD1306_move
 3438              	.LVL286:
 388:Core/Src/USER/user.c **** 
 389:Core/Src/USER/user.c **** SSD1306_put_tile(font,8);
 3439              		.loc 5 389 1 view .LVU792
ARM GAS  C:\Users\User\AppData\Local\Temp\ccEEhKx4.s 			page 90


 3440 00a4 0821     		movs	r1, #8
 3441 00a6 3046     		mov	r0, r6
 3442 00a8 FFF7FEFF 		bl	SSD1306_put_tile
 3443              	.LVL287:
 390:Core/Src/USER/user.c **** 
 391:Core/Src/USER/user.c **** SSD1306_move(1, 1+9);
 3444              		.loc 5 391 1 view .LVU793
 3445 00ac 0A21     		movs	r1, #10
 3446 00ae 0120     		movs	r0, #1
 3447 00b0 FFF7FEFF 		bl	SSD1306_move
 3448              	.LVL288:
 392:Core/Src/USER/user.c **** SSD1306_put_tile(font,8);
 3449              		.loc 5 392 1 view .LVU794
 3450 00b4 0821     		movs	r1, #8
 3451 00b6 3046     		mov	r0, r6
 3452 00b8 FFF7FEFF 		bl	SSD1306_put_tile
 3453              	.LVL289:
 393:Core/Src/USER/user.c **** 
 394:Core/Src/USER/user.c **** //if(invertuotas>0){SSD1306_invert(); invertuotas--;} else {SSD1306_normal();}
 395:Core/Src/USER/user.c **** 
 396:Core/Src/USER/user.c **** }
 3454              		.loc 5 396 1 is_stmt 0 view .LVU795
 3455 00bc 02B0     		add	sp, sp, #8
 3456              	.LCFI75:
 3457              		.cfi_def_cfa_offset 16
 3458              		@ sp needed
 3459 00be 70BD     		pop	{r4, r5, r6, pc}
 3460              	.L229:
 3461              		.align	2
 3462              	.L228:
 3463 00c0 00000000 		.word	.LANCHOR16
 3464 00c4 00000000 		.word	.LANCHOR2
 3465 00c8 00000000 		.word	.LANCHOR3
 3466 00cc CDCCCCCC 		.word	-858993459
 3467              		.cfi_endproc
 3468              	.LFE125:
 3470              		.section	.text.user_seconds_job,"ax",%progbits
 3471              		.align	1
 3472              		.global	user_seconds_job
 3473              		.syntax unified
 3474              		.thumb
 3475              		.thumb_func
 3477              	user_seconds_job:
 3478              	.LFB122:
 218:Core/Src/USER/user.c **** uint32_t nowseconds, starttime,pwm;
 3479              		.loc 5 218 1 is_stmt 1 view -0
 3480              		.cfi_startproc
 3481              		@ args = 0, pretend = 0, frame = 0
 3482              		@ frame_needed = 0, uses_anonymous_args = 0
 3483 0000 10B5     		push	{r4, lr}
 3484              	.LCFI76:
 3485              		.cfi_def_cfa_offset 8
 3486              		.cfi_offset 4, -8
 3487              		.cfi_offset 14, -4
 219:Core/Src/USER/user.c **** 	show_time();
 3488              		.loc 5 219 1 view .LVU797
 220:Core/Src/USER/user.c **** 	nowseconds=currTime.Hours*3600+currTime.Minutes*60+currTime.Seconds; //+(dienos.Date-1)*86400;
ARM GAS  C:\Users\User\AppData\Local\Temp\ccEEhKx4.s 			page 91


 3489              		.loc 5 220 2 view .LVU798
 3490 0002 FFF7FEFF 		bl	show_time
 3491              	.LVL290:
 221:Core/Src/USER/user.c **** 	starttime=start_hour*3600+start_minutes*60; //+(dienos.Date-1)*86400;
 3492              		.loc 5 221 2 view .LVU799
 221:Core/Src/USER/user.c **** 	starttime=start_hour*3600+start_minutes*60; //+(dienos.Date-1)*86400;
 3493              		.loc 5 221 21 is_stmt 0 view .LVU800
 3494 0006 154C     		ldr	r4, .L235
 3495 0008 2178     		ldrb	r1, [r4]	@ zero_extendqisi2
 221:Core/Src/USER/user.c **** 	starttime=start_hour*3600+start_minutes*60; //+(dienos.Date-1)*86400;
 3496              		.loc 5 221 27 view .LVU801
 3497 000a 4FF4616C 		mov	ip, #3600
 221:Core/Src/USER/user.c **** 	starttime=start_hour*3600+start_minutes*60; //+(dienos.Date-1)*86400;
 3498              		.loc 5 221 41 view .LVU802
 3499 000e 6078     		ldrb	r0, [r4, #1]	@ zero_extendqisi2
 221:Core/Src/USER/user.c **** 	starttime=start_hour*3600+start_minutes*60; //+(dienos.Date-1)*86400;
 3500              		.loc 5 221 49 view .LVU803
 3501 0010 C0EB0010 		rsb	r0, r0, r0, lsl #4
 3502 0014 8200     		lsls	r2, r0, #2
 221:Core/Src/USER/user.c **** 	starttime=start_hour*3600+start_minutes*60; //+(dienos.Date-1)*86400;
 3503              		.loc 5 221 32 view .LVU804
 3504 0016 0CFB0122 		mla	r2, ip, r1, r2
 221:Core/Src/USER/user.c **** 	starttime=start_hour*3600+start_minutes*60; //+(dienos.Date-1)*86400;
 3505              		.loc 5 221 61 view .LVU805
 3506 001a A378     		ldrb	r3, [r4, #2]	@ zero_extendqisi2
 221:Core/Src/USER/user.c **** 	starttime=start_hour*3600+start_minutes*60; //+(dienos.Date-1)*86400;
 3507              		.loc 5 221 52 view .LVU806
 3508 001c D118     		adds	r1, r2, r3
 3509              	.LVL291:
 222:Core/Src/USER/user.c **** 	
 3510              		.loc 5 222 2 is_stmt 1 view .LVU807
 222:Core/Src/USER/user.c **** 	
 3511              		.loc 5 222 22 is_stmt 0 view .LVU808
 3512 001e 104B     		ldr	r3, .L235+4
 3513 0020 1B88     		ldrh	r3, [r3]
 3514 0022 98B2     		uxth	r0, r3
 222:Core/Src/USER/user.c **** 	
 3515              		.loc 5 222 41 view .LVU809
 3516 0024 0F4B     		ldr	r3, .L235+8
 3517 0026 1A88     		ldrh	r2, [r3]
 3518 0028 92B2     		uxth	r2, r2
 3519 002a C2EB0212 		rsb	r2, r2, r2, lsl #4
 3520 002e 9300     		lsls	r3, r2, #2
 222:Core/Src/USER/user.c **** 	
 3521              		.loc 5 222 27 view .LVU810
 3522 0030 0CFB0033 		mla	r3, ip, r0, r3
 3523              	.LVL292:
 225:Core/Src/USER/user.c **** 		{
 3524              		.loc 5 225 2 is_stmt 1 view .LVU811
 225:Core/Src/USER/user.c **** 		{
 3525              		.loc 5 225 5 is_stmt 0 view .LVU812
 3526 0034 9942     		cmp	r1, r3
 3527 0036 09D9     		bls	.L232
 225:Core/Src/USER/user.c **** 		{
 3528              		.loc 5 225 57 discriminator 1 view .LVU813
 3529 0038 03F5FD42 		add	r2, r3, #32384
 3530 003c 1032     		adds	r2, r2, #16
ARM GAS  C:\Users\User\AppData\Local\Temp\ccEEhKx4.s 			page 92


 225:Core/Src/USER/user.c **** 		{
 3531              		.loc 5 225 31 discriminator 1 view .LVU814
 3532 003e 8A42     		cmp	r2, r1
 3533 0040 09D9     		bls	.L233
 227:Core/Src/USER/user.c **** 		
 3534              		.loc 5 227 3 is_stmt 1 view .LVU815
 227:Core/Src/USER/user.c **** 		
 3535              		.loc 5 227 22 is_stmt 0 view .LVU816
 3536 0042 5B1A     		subs	r3, r3, r1
 3537              	.LVL293:
 227:Core/Src/USER/user.c **** 		
 3538              		.loc 5 227 6 view .LVU817
 3539 0044 03F5FD43 		add	r3, r3, #32384
 3540 0048 1033     		adds	r3, r3, #16
 3541              	.LVL294:
 227:Core/Src/USER/user.c **** 		
 3542              		.loc 5 227 6 view .LVU818
 3543 004a 00E0     		b	.L231
 3544              	.LVL295:
 3545              	.L232:
 233:Core/Src/USER/user.c **** 		}
 3546              		.loc 5 233 6 view .LVU819
 3547 004c 0023     		movs	r3, #0
 3548              	.LVL296:
 3549              	.L231:
 237:Core/Src/USER/user.c **** }
 3550              		.loc 5 237 1 is_stmt 1 view .LVU820
 3551 004e 064A     		ldr	r2, .L235+12
 3552 0050 1268     		ldr	r2, [r2]
 3553 0052 5363     		str	r3, [r2, #52]
 238:Core/Src/USER/user.c **** 
 3554              		.loc 5 238 1 is_stmt 0 view .LVU821
 3555 0054 10BD     		pop	{r4, pc}
 3556              	.LVL297:
 3557              	.L233:
 233:Core/Src/USER/user.c **** 		}
 3558              		.loc 5 233 6 view .LVU822
 3559 0056 0023     		movs	r3, #0
 3560              	.LVL298:
 233:Core/Src/USER/user.c **** 		}
 3561              		.loc 5 233 6 view .LVU823
 3562 0058 F9E7     		b	.L231
 3563              	.L236:
 3564 005a 00BF     		.align	2
 3565              	.L235:
 3566 005c 00000000 		.word	.LANCHOR2
 3567 0060 00000000 		.word	.LANCHOR13
 3568 0064 00000000 		.word	.LANCHOR14
 3569 0068 00000000 		.word	.LANCHOR11
 3570              		.cfi_endproc
 3571              	.LFE122:
 3573              		.section	.text.HAL_RTCEx_RTCEventCallback,"ax",%progbits
 3574              		.align	1
 3575              		.global	HAL_RTCEx_RTCEventCallback
 3576              		.syntax unified
 3577              		.thumb
 3578              		.thumb_func
ARM GAS  C:\Users\User\AppData\Local\Temp\ccEEhKx4.s 			page 93


 3580              	HAL_RTCEx_RTCEventCallback:
 3581              	.LVL299:
 3582              	.LFB76:
 170:Core/Src/USER/rtc.c **** 
 171:Core/Src/USER/rtc.c **** 
 172:Core/Src/USER/rtc.c **** /**
 173:Core/Src/USER/rtc.c ****   * @brief  Second event callback.
 174:Core/Src/USER/rtc.c **** **/
 175:Core/Src/USER/rtc.c **** /* kas sekunde, turi buti ijungtas INT */
 176:Core/Src/USER/rtc.c **** void HAL_RTCEx_RTCEventCallback(RTC_HandleTypeDef *hrtc)
 177:Core/Src/USER/rtc.c **** {
 3583              		.loc 3 177 1 is_stmt 1 view -0
 3584              		.cfi_startproc
 3585              		@ args = 0, pretend = 0, frame = 0
 3586              		@ frame_needed = 0, uses_anonymous_args = 0
 3587              		.loc 3 177 1 is_stmt 0 view .LVU825
 3588 0000 08B5     		push	{r3, lr}
 3589              	.LCFI77:
 3590              		.cfi_def_cfa_offset 8
 3591              		.cfi_offset 3, -8
 3592              		.cfi_offset 14, -4
 178:Core/Src/USER/rtc.c **** 	user_seconds_job();
 3593              		.loc 3 178 2 is_stmt 1 view .LVU826
 3594 0002 FFF7FEFF 		bl	user_seconds_job
 3595              	.LVL300:
 179:Core/Src/USER/rtc.c **** }...
 3596              		.loc 3 179 1 is_stmt 0 view .LVU827
 3597 0006 08BD     		pop	{r3, pc}
 3598              		.cfi_endproc
 3599              	.LFE76:
 3601              		.section	.rodata.HAL_TIM_PeriodElapsedCallback.str1.4,"aMS",%progbits,1
 3602              		.align	2
 3603              	.LC3:
 3604 0000 20202020 		.ascii	"                \000"
 3604      20202020 
 3604      20202020 
 3604      20202020 
 3604      00
 3605 0011 000000   		.align	2
 3606              	.LC4:
 3607 0014 53657474 		.ascii	"Setting hours \000"
 3607      696E6720 
 3607      686F7572 
 3607      732000
 3608 0023 00       		.align	2
 3609              	.LC5:
 3610 0024 53657474 		.ascii	"Setting mins  \000"
 3610      696E6720 
 3610      6D696E73 
 3610      202000
 3611 0033 00       		.align	2
 3612              	.LC6:
 3613 0034 53746172 		.ascii	"Start hour:\000"
 3613      7420686F 
 3613      75723A00 
 3614              		.align	2
 3615              	.LC7:
ARM GAS  C:\Users\User\AppData\Local\Temp\ccEEhKx4.s 			page 94


 3616 0040 53746172 		.ascii	"Start min:\000"
 3616      74206D69 
 3616      6E3A00
 3617              		.section	.text.HAL_TIM_PeriodElapsedCallback,"ax",%progbits
 3618              		.align	1
 3619              		.global	HAL_TIM_PeriodElapsedCallback
 3620              		.syntax unified
 3621              		.thumb
 3622              		.thumb_func
 3624              	HAL_TIM_PeriodElapsedCallback:
 3625              	.LVL301:
 3626              	.LFB124:
 251:Core/Src/USER/user.c **** char text[5];
 3627              		.loc 5 251 1 is_stmt 1 view -0
 3628              		.cfi_startproc
 3629              		@ args = 0, pretend = 0, frame = 8
 3630              		@ frame_needed = 0, uses_anonymous_args = 0
 252:Core/Src/USER/user.c **** unsigned char tmp;
 3631              		.loc 5 252 1 view .LVU829
 253:Core/Src/USER/user.c **** 
 3632              		.loc 5 253 1 view .LVU830
 255:Core/Src/USER/user.c ****   {
 3633              		.loc 5 255 3 view .LVU831
 255:Core/Src/USER/user.c ****   {
 3634              		.loc 5 255 6 is_stmt 0 view .LVU832
 3635 0000 8F4B     		ldr	r3, .L291
 3636 0002 8342     		cmp	r3, r0
 3637 0004 00D0     		beq	.L275
 3638 0006 7047     		bx	lr
 3639              	.L275:
 251:Core/Src/USER/user.c **** char text[5];
 3640              		.loc 5 251 1 view .LVU833
 3641 0008 30B5     		push	{r4, r5, lr}
 3642              	.LCFI78:
 3643              		.cfi_def_cfa_offset 12
 3644              		.cfi_offset 4, -12
 3645              		.cfi_offset 5, -8
 3646              		.cfi_offset 14, -4
 3647 000a 83B0     		sub	sp, sp, #12
 3648              	.LCFI79:
 3649              		.cfi_def_cfa_offset 24
 257:Core/Src/USER/user.c **** 	HAL_GPIO_TogglePin(GPIOA, LED_Pin);
 3650              		.loc 5 257 4 is_stmt 1 view .LVU834
 3651 000c FFF7FEFF 		bl	ReadPins
 3652              	.LVL302:
 258:Core/Src/USER/user.c **** 	if (buttons==0 && mode_delay>0) {mode_delay--;}
 3653              		.loc 5 258 2 view .LVU835
 3654 0010 0121     		movs	r1, #1
 3655 0012 8C48     		ldr	r0, .L291+4
 3656 0014 FFF7FEFF 		bl	HAL_GPIO_TogglePin
 3657              	.LVL303:
 259:Core/Src/USER/user.c **** 	if (mode_delay==1) {mode=0; SSD1306_move(3,0); SSD1306_puts("                "); mode_delay=0; sle
 3658              		.loc 5 259 2 view .LVU836
 259:Core/Src/USER/user.c **** 	if (mode_delay==1) {mode=0; SSD1306_move(3,0); SSD1306_puts("                "); mode_delay=0; sle
 3659              		.loc 5 259 13 is_stmt 0 view .LVU837
 3660 0018 8B4B     		ldr	r3, .L291+8
 3661 001a 1B78     		ldrb	r3, [r3]	@ zero_extendqisi2
ARM GAS  C:\Users\User\AppData\Local\Temp\ccEEhKx4.s 			page 95


 259:Core/Src/USER/user.c **** 	if (mode_delay==1) {mode=0; SSD1306_move(3,0); SSD1306_puts("                "); mode_delay=0; sle
 3662              		.loc 5 259 5 view .LVU838
 3663 001c 3BB9     		cbnz	r3, .L241
 259:Core/Src/USER/user.c **** 	if (mode_delay==1) {mode=0; SSD1306_move(3,0); SSD1306_puts("                "); mode_delay=0; sle
 3664              		.loc 5 259 30 discriminator 1 view .LVU839
 3665 001e 8B4B     		ldr	r3, .L291+12
 3666 0020 1B78     		ldrb	r3, [r3]	@ zero_extendqisi2
 259:Core/Src/USER/user.c **** 	if (mode_delay==1) {mode=0; SSD1306_move(3,0); SSD1306_puts("                "); mode_delay=0; sle
 3667              		.loc 5 259 17 discriminator 1 view .LVU840
 3668 0022 23B1     		cbz	r3, .L241
 259:Core/Src/USER/user.c **** 	if (mode_delay==1) {mode=0; SSD1306_move(3,0); SSD1306_puts("                "); mode_delay=0; sle
 3669              		.loc 5 259 35 is_stmt 1 discriminator 2 view .LVU841
 259:Core/Src/USER/user.c **** 	if (mode_delay==1) {mode=0; SSD1306_move(3,0); SSD1306_puts("                "); mode_delay=0; sle
 3670              		.loc 5 259 45 is_stmt 0 discriminator 2 view .LVU842
 3671 0024 894A     		ldr	r2, .L291+12
 3672 0026 1378     		ldrb	r3, [r2]	@ zero_extendqisi2
 3673 0028 013B     		subs	r3, r3, #1
 3674 002a DBB2     		uxtb	r3, r3
 3675 002c 1370     		strb	r3, [r2]
 3676              	.L241:
 260:Core/Src/USER/user.c **** 	if (mode_delay==0 && sleep_delay>0) {sleep_delay--;}
 3677              		.loc 5 260 2 is_stmt 1 view .LVU843
 260:Core/Src/USER/user.c **** 	if (mode_delay==0 && sleep_delay>0) {sleep_delay--;}
 3678              		.loc 5 260 16 is_stmt 0 view .LVU844
 3679 002e 874B     		ldr	r3, .L291+12
 3680 0030 1B78     		ldrb	r3, [r3]	@ zero_extendqisi2
 3681 0032 DBB2     		uxtb	r3, r3
 260:Core/Src/USER/user.c **** 	if (mode_delay==0 && sleep_delay>0) {sleep_delay--;}
 3682              		.loc 5 260 5 view .LVU845
 3683 0034 012B     		cmp	r3, #1
 3684 0036 37D0     		beq	.L276
 3685              	.L242:
 261:Core/Src/USER/user.c **** 	if (sleep_delay==0) {mode=5; SSD1306_command1(SSD1306_DISPLAYOFF);}
 3686              		.loc 5 261 2 is_stmt 1 view .LVU846
 261:Core/Src/USER/user.c **** 	if (sleep_delay==0) {mode=5; SSD1306_command1(SSD1306_DISPLAYOFF);}
 3687              		.loc 5 261 16 is_stmt 0 view .LVU847
 3688 0038 844B     		ldr	r3, .L291+12
 3689 003a 1B78     		ldrb	r3, [r3]	@ zero_extendqisi2
 261:Core/Src/USER/user.c **** 	if (sleep_delay==0) {mode=5; SSD1306_command1(SSD1306_DISPLAYOFF);}
 3690              		.loc 5 261 5 view .LVU848
 3691 003c 33B9     		cbnz	r3, .L243
 261:Core/Src/USER/user.c **** 	if (sleep_delay==0) {mode=5; SSD1306_command1(SSD1306_DISPLAYOFF);}
 3692              		.loc 5 261 34 discriminator 1 view .LVU849
 3693 003e 844B     		ldr	r3, .L291+16
 3694 0040 1B68     		ldr	r3, [r3]
 261:Core/Src/USER/user.c **** 	if (sleep_delay==0) {mode=5; SSD1306_command1(SSD1306_DISPLAYOFF);}
 3695              		.loc 5 261 20 discriminator 1 view .LVU850
 3696 0042 1BB1     		cbz	r3, .L243
 261:Core/Src/USER/user.c **** 	if (sleep_delay==0) {mode=5; SSD1306_command1(SSD1306_DISPLAYOFF);}
 3697              		.loc 5 261 39 is_stmt 1 discriminator 2 view .LVU851
 261:Core/Src/USER/user.c **** 	if (sleep_delay==0) {mode=5; SSD1306_command1(SSD1306_DISPLAYOFF);}
 3698              		.loc 5 261 50 is_stmt 0 discriminator 2 view .LVU852
 3699 0044 824A     		ldr	r2, .L291+16
 3700 0046 1368     		ldr	r3, [r2]
 3701 0048 013B     		subs	r3, r3, #1
 3702 004a 1360     		str	r3, [r2]
 3703              	.L243:
ARM GAS  C:\Users\User\AppData\Local\Temp\ccEEhKx4.s 			page 96


 262:Core/Src/USER/user.c **** 	if (buttons != old_buttons)
 3704              		.loc 5 262 2 is_stmt 1 view .LVU853
 262:Core/Src/USER/user.c **** 	if (buttons != old_buttons)
 3705              		.loc 5 262 17 is_stmt 0 view .LVU854
 3706 004c 804B     		ldr	r3, .L291+16
 3707 004e 1B68     		ldr	r3, [r3]
 262:Core/Src/USER/user.c **** 	if (buttons != old_buttons)
 3708              		.loc 5 262 5 view .LVU855
 3709 0050 002B     		cmp	r3, #0
 3710 0052 3AD0     		beq	.L277
 3711              	.L244:
 263:Core/Src/USER/user.c **** 		{
 3712              		.loc 5 263 2 is_stmt 1 view .LVU856
 263:Core/Src/USER/user.c **** 		{
 3713              		.loc 5 263 14 is_stmt 0 view .LVU857
 3714 0054 7C4B     		ldr	r3, .L291+8
 3715 0056 1A78     		ldrb	r2, [r3]	@ zero_extendqisi2
 3716 0058 D2B2     		uxtb	r2, r2
 3717 005a 7E4B     		ldr	r3, .L291+20
 3718 005c 1B78     		ldrb	r3, [r3]	@ zero_extendqisi2
 3719 005e DBB2     		uxtb	r3, r3
 263:Core/Src/USER/user.c **** 		{
 3720              		.loc 5 263 5 view .LVU858
 3721 0060 9A42     		cmp	r2, r3
 3722 0062 49D0     		beq	.L239
 265:Core/Src/USER/user.c **** 		
 3723              		.loc 5 265 3 is_stmt 1 view .LVU859
 265:Core/Src/USER/user.c **** 		
 3724              		.loc 5 265 14 is_stmt 0 view .LVU860
 3725 0064 784A     		ldr	r2, .L291+8
 3726 0066 1378     		ldrb	r3, [r2]	@ zero_extendqisi2
 3727 0068 DBB2     		uxtb	r3, r3
 3728 006a 7A49     		ldr	r1, .L291+20
 3729 006c 0B70     		strb	r3, [r1]
 267:Core/Src/USER/user.c **** 		text[3]=' ';
 3730              		.loc 5 267 3 is_stmt 1 view .LVU861
 267:Core/Src/USER/user.c **** 		text[3]=' ';
 3731              		.loc 5 267 10 is_stmt 0 view .LVU862
 3732 006e 2023     		movs	r3, #32
 3733 0070 8DF80230 		strb	r3, [sp, #2]
 268:Core/Src/USER/user.c **** 		text[4]=0;
 3734              		.loc 5 268 3 is_stmt 1 view .LVU863
 268:Core/Src/USER/user.c **** 		text[4]=0;
 3735              		.loc 5 268 10 is_stmt 0 view .LVU864
 3736 0074 8DF80330 		strb	r3, [sp, #3]
 269:Core/Src/USER/user.c **** 		
 3737              		.loc 5 269 3 is_stmt 1 view .LVU865
 269:Core/Src/USER/user.c **** 		
 3738              		.loc 5 269 10 is_stmt 0 view .LVU866
 3739 0078 0023     		movs	r3, #0
 3740 007a 8DF80430 		strb	r3, [sp, #4]
 271:Core/Src/USER/user.c **** 			{
 3741              		.loc 5 271 3 is_stmt 1 view .LVU867
 271:Core/Src/USER/user.c **** 			{
 3742              		.loc 5 271 14 is_stmt 0 view .LVU868
 3743 007e 1378     		ldrb	r3, [r2]	@ zero_extendqisi2
 3744 0080 DBB2     		uxtb	r3, r3
ARM GAS  C:\Users\User\AppData\Local\Temp\ccEEhKx4.s 			page 97


 271:Core/Src/USER/user.c **** 			{
 3745              		.loc 5 271 6 view .LVU869
 3746 0082 012B     		cmp	r3, #1
 3747 0084 28D0     		beq	.L278
 278:Core/Src/USER/user.c **** 			//########## 
 3748              		.loc 5 278 8 is_stmt 1 view .LVU870
 278:Core/Src/USER/user.c **** 			//########## 
 3749              		.loc 5 278 19 is_stmt 0 view .LVU871
 3750 0086 704B     		ldr	r3, .L291+8
 3751 0088 1B78     		ldrb	r3, [r3]	@ zero_extendqisi2
 3752 008a DBB2     		uxtb	r3, r3
 278:Core/Src/USER/user.c **** 			//########## 
 3753              		.loc 5 278 11 view .LVU872
 3754 008c 072B     		cmp	r3, #7
 3755 008e 3CD0     		beq	.L279
 281:Core/Src/USER/user.c **** 				{
 3756              		.loc 5 281 4 is_stmt 1 view .LVU873
 3757 0090 714B     		ldr	r3, .L291+24
 3758 0092 1B78     		ldrb	r3, [r3]	@ zero_extendqisi2
 3759 0094 DBB2     		uxtb	r3, r3
 3760 0096 042B     		cmp	r3, #4
 3761 0098 2ED8     		bhi	.L239
 3762 009a DFE813F0 		tbh	[pc, r3, lsl #1]
 3763              	.L248:
 3764 009e 4800     		.2byte	(.L252-.L248)/2
 3765 00a0 5000     		.2byte	(.L251-.L248)/2
 3766 00a2 9000     		.2byte	(.L250-.L248)/2
 3767 00a4 E900     		.2byte	(.L249-.L248)/2
 3768 00a6 3001     		.2byte	(.L247-.L248)/2
 3769              		.p2align 1
 3770              	.L276:
 260:Core/Src/USER/user.c **** 	if (mode_delay==0 && sleep_delay>0) {sleep_delay--;}
 3771              		.loc 5 260 22 discriminator 1 view .LVU874
 260:Core/Src/USER/user.c **** 	if (mode_delay==0 && sleep_delay>0) {sleep_delay--;}
 3772              		.loc 5 260 26 is_stmt 0 discriminator 1 view .LVU875
 3773 00a8 0024     		movs	r4, #0
 3774 00aa 6B4B     		ldr	r3, .L291+24
 3775 00ac 1C70     		strb	r4, [r3]
 260:Core/Src/USER/user.c **** 	if (mode_delay==0 && sleep_delay>0) {sleep_delay--;}
 3776              		.loc 5 260 30 is_stmt 1 discriminator 1 view .LVU876
 3777 00ae 2146     		mov	r1, r4
 3778 00b0 0320     		movs	r0, #3
 3779 00b2 FFF7FEFF 		bl	SSD1306_move
 3780              	.LVL304:
 260:Core/Src/USER/user.c **** 	if (mode_delay==0 && sleep_delay>0) {sleep_delay--;}
 3781              		.loc 5 260 49 discriminator 1 view .LVU877
 3782 00b6 6948     		ldr	r0, .L291+28
 3783 00b8 FFF7FEFF 		bl	SSD1306_puts
 3784              	.LVL305:
 260:Core/Src/USER/user.c **** 	if (mode_delay==0 && sleep_delay>0) {sleep_delay--;}
 3785              		.loc 5 260 83 discriminator 1 view .LVU878
 260:Core/Src/USER/user.c **** 	if (mode_delay==0 && sleep_delay>0) {sleep_delay--;}
 3786              		.loc 5 260 93 is_stmt 0 discriminator 1 view .LVU879
 3787 00bc 634B     		ldr	r3, .L291+12
 3788 00be 1C70     		strb	r4, [r3]
 260:Core/Src/USER/user.c **** 	if (mode_delay==0 && sleep_delay>0) {sleep_delay--;}
 3789              		.loc 5 260 97 is_stmt 1 discriminator 1 view .LVU880
ARM GAS  C:\Users\User\AppData\Local\Temp\ccEEhKx4.s 			page 98


 260:Core/Src/USER/user.c **** 	if (mode_delay==0 && sleep_delay>0) {sleep_delay--;}
 3790              		.loc 5 260 108 is_stmt 0 discriminator 1 view .LVU881
 3791 00c0 634B     		ldr	r3, .L291+16
 3792 00c2 4FF49672 		mov	r2, #300
 3793 00c6 1A60     		str	r2, [r3]
 3794 00c8 B6E7     		b	.L242
 3795              	.L277:
 262:Core/Src/USER/user.c **** 	if (buttons != old_buttons)
 3796              		.loc 5 262 23 is_stmt 1 discriminator 1 view .LVU882
 262:Core/Src/USER/user.c **** 	if (buttons != old_buttons)
 3797              		.loc 5 262 27 is_stmt 0 discriminator 1 view .LVU883
 3798 00ca 634B     		ldr	r3, .L291+24
 3799 00cc 0522     		movs	r2, #5
 3800 00ce 1A70     		strb	r2, [r3]
 262:Core/Src/USER/user.c **** 	if (buttons != old_buttons)
 3801              		.loc 5 262 31 is_stmt 1 discriminator 1 view .LVU884
 3802 00d0 AE20     		movs	r0, #174
 3803 00d2 FFF7FEFF 		bl	SSD1306_command1
 3804              	.LVL306:
 3805 00d6 BDE7     		b	.L244
 3806              	.L278:
 273:Core/Src/USER/user.c **** 			mode_delay=MODE_DELAY;
 3807              		.loc 5 273 4 view .LVU885
 273:Core/Src/USER/user.c **** 			mode_delay=MODE_DELAY;
 3808              		.loc 5 273 8 is_stmt 0 view .LVU886
 3809 00d8 5F4A     		ldr	r2, .L291+24
 3810 00da 1378     		ldrb	r3, [r2]	@ zero_extendqisi2
 3811 00dc 0133     		adds	r3, r3, #1
 3812 00de DBB2     		uxtb	r3, r3
 3813 00e0 1370     		strb	r3, [r2]
 274:Core/Src/USER/user.c **** 			sleep_delay=SLEEP_DELAY;
 3814              		.loc 5 274 4 is_stmt 1 view .LVU887
 274:Core/Src/USER/user.c **** 			sleep_delay=SLEEP_DELAY;
 3815              		.loc 5 274 14 is_stmt 0 view .LVU888
 3816 00e2 5A4B     		ldr	r3, .L291+12
 3817 00e4 1E21     		movs	r1, #30
 3818 00e6 1970     		strb	r1, [r3]
 275:Core/Src/USER/user.c **** 			if (mode>4) {mode=0; SSD1306_command1(SSD1306_DISPLAYON);}
 3819              		.loc 5 275 4 is_stmt 1 view .LVU889
 275:Core/Src/USER/user.c **** 			if (mode>4) {mode=0; SSD1306_command1(SSD1306_DISPLAYON);}
 3820              		.loc 5 275 15 is_stmt 0 view .LVU890
 3821 00e8 594B     		ldr	r3, .L291+16
 3822 00ea 4FF49671 		mov	r1, #300
 3823 00ee 1960     		str	r1, [r3]
 276:Core/Src/USER/user.c **** 			}
 3824              		.loc 5 276 4 is_stmt 1 view .LVU891
 276:Core/Src/USER/user.c **** 			}
 3825              		.loc 5 276 12 is_stmt 0 view .LVU892
 3826 00f0 1378     		ldrb	r3, [r2]	@ zero_extendqisi2
 3827 00f2 DBB2     		uxtb	r3, r3
 276:Core/Src/USER/user.c **** 			}
 3828              		.loc 5 276 7 view .LVU893
 3829 00f4 042B     		cmp	r3, #4
 3830 00f6 01D8     		bhi	.L280
 3831              	.L239:
 370:Core/Src/USER/user.c **** 
 3832              		.loc 5 370 1 view .LVU894
ARM GAS  C:\Users\User\AppData\Local\Temp\ccEEhKx4.s 			page 99


 3833 00f8 03B0     		add	sp, sp, #12
 3834              	.LCFI80:
 3835              		.cfi_remember_state
 3836              		.cfi_def_cfa_offset 12
 3837              		@ sp needed
 3838 00fa 30BD     		pop	{r4, r5, pc}
 3839              	.L280:
 3840              	.LCFI81:
 3841              		.cfi_restore_state
 276:Core/Src/USER/user.c **** 			}
 3842              		.loc 5 276 17 is_stmt 1 discriminator 1 view .LVU895
 276:Core/Src/USER/user.c **** 			}
 3843              		.loc 5 276 21 is_stmt 0 discriminator 1 view .LVU896
 3844 00fc 1346     		mov	r3, r2
 3845 00fe 0022     		movs	r2, #0
 3846 0100 1A70     		strb	r2, [r3]
 276:Core/Src/USER/user.c **** 			}
 3847              		.loc 5 276 25 is_stmt 1 discriminator 1 view .LVU897
 3848 0102 AF20     		movs	r0, #175
 3849 0104 FFF7FEFF 		bl	SSD1306_command1
 3850              	.LVL307:
 3851 0108 F6E7     		b	.L239
 3852              	.L279:
 278:Core/Src/USER/user.c **** 			//########## 
 3853              		.loc 5 278 25 discriminator 1 view .LVU898
 3854 010a 554C     		ldr	r4, .L291+32
 3855 010c 554D     		ldr	r5, .L291+36
 3856 010e 0022     		movs	r2, #0
 3857 0110 2146     		mov	r1, r4
 3858 0112 2846     		mov	r0, r5
 3859 0114 FFF7FEFF 		bl	HAL_RTC_GetTime
 3860              	.LVL308:
 278:Core/Src/USER/user.c **** 			//########## 
 3861              		.loc 5 278 76 discriminator 1 view .LVU899
 278:Core/Src/USER/user.c **** 			//########## 
 3862              		.loc 5 278 80 is_stmt 0 discriminator 1 view .LVU900
 3863 0118 0022     		movs	r2, #0
 3864 011a 4F4B     		ldr	r3, .L291+24
 3865 011c 1A70     		strb	r2, [r3]
 278:Core/Src/USER/user.c **** 			//########## 
 3866              		.loc 5 278 84 is_stmt 1 discriminator 1 view .LVU901
 278:Core/Src/USER/user.c **** 			//########## 
 3867              		.loc 5 278 100 is_stmt 0 discriminator 1 view .LVU902
 3868 011e A270     		strb	r2, [r4, #2]
 278:Core/Src/USER/user.c **** 			//########## 
 3869              		.loc 5 278 104 is_stmt 1 discriminator 1 view .LVU903
 3870 0120 2146     		mov	r1, r4
 3871 0122 2846     		mov	r0, r5
 3872 0124 FFF7FEFF 		bl	HAL_RTC_SetTime
 3873              	.LVL309:
 278:Core/Src/USER/user.c **** 			//########## 
 3874              		.loc 5 278 154 discriminator 1 view .LVU904
 3875 0128 FFF7FEFF 		bl	show_time
 3876              	.LVL310:
 3877 012c E4E7     		b	.L239
 3878              	.L252:
 284:Core/Src/USER/user.c **** 					break;
ARM GAS  C:\Users\User\AppData\Local\Temp\ccEEhKx4.s 			page 100


 3879              		.loc 5 284 6 view .LVU905
 3880 012e 0021     		movs	r1, #0
 3881 0130 0320     		movs	r0, #3
 3882 0132 FFF7FEFF 		bl	SSD1306_move
 3883              	.LVL311:
 284:Core/Src/USER/user.c **** 					break;
 3884              		.loc 5 284 25 view .LVU906
 3885 0136 4948     		ldr	r0, .L291+28
 3886 0138 FFF7FEFF 		bl	SSD1306_puts
 3887              	.LVL312:
 285:Core/Src/USER/user.c **** 					case 0x01: //setup hour
 3888              		.loc 5 285 6 view .LVU907
 3889 013c DCE7     		b	.L239
 3890              	.L251:
 288:Core/Src/USER/user.c **** 						HAL_RTC_GetTime(&hrtc, &currTime, RTC_FORMAT_BIN);
 3891              		.loc 5 288 7 view .LVU908
 3892              	.LBB35:
 3893              	.LBI35:
 3894              		.file 6 "Drivers/CMSIS/Include/cmsis_gcc.h"
   1:Drivers/CMSIS/Include/cmsis_gcc.h **** /**************************************************************************//**
   2:Drivers/CMSIS/Include/cmsis_gcc.h ****  * @file     cmsis_gcc.h
   3:Drivers/CMSIS/Include/cmsis_gcc.h ****  * @brief    CMSIS compiler GCC header file
   4:Drivers/CMSIS/Include/cmsis_gcc.h ****  * @version  V5.0.4
   5:Drivers/CMSIS/Include/cmsis_gcc.h ****  * @date     09. April 2018
   6:Drivers/CMSIS/Include/cmsis_gcc.h ****  ******************************************************************************/
   7:Drivers/CMSIS/Include/cmsis_gcc.h **** /*
   8:Drivers/CMSIS/Include/cmsis_gcc.h ****  * Copyright (c) 2009-2018 Arm Limited. All rights reserved.
   9:Drivers/CMSIS/Include/cmsis_gcc.h ****  *
  10:Drivers/CMSIS/Include/cmsis_gcc.h ****  * SPDX-License-Identifier: Apache-2.0
  11:Drivers/CMSIS/Include/cmsis_gcc.h ****  *
  12:Drivers/CMSIS/Include/cmsis_gcc.h ****  * Licensed under the Apache License, Version 2.0 (the License); you may
  13:Drivers/CMSIS/Include/cmsis_gcc.h ****  * not use this file except in compliance with the License.
  14:Drivers/CMSIS/Include/cmsis_gcc.h ****  * You may obtain a copy of the License at
  15:Drivers/CMSIS/Include/cmsis_gcc.h ****  *
  16:Drivers/CMSIS/Include/cmsis_gcc.h ****  * www.apache.org/licenses/LICENSE-2.0
  17:Drivers/CMSIS/Include/cmsis_gcc.h ****  *
  18:Drivers/CMSIS/Include/cmsis_gcc.h ****  * Unless required by applicable law or agreed to in writing, software
  19:Drivers/CMSIS/Include/cmsis_gcc.h ****  * distributed under the License is distributed on an AS IS BASIS, WITHOUT
  20:Drivers/CMSIS/Include/cmsis_gcc.h ****  * WARRANTIES OR CONDITIONS OF ANY KIND, either express or implied.
  21:Drivers/CMSIS/Include/cmsis_gcc.h ****  * See the License for the specific language governing permissions and
  22:Drivers/CMSIS/Include/cmsis_gcc.h ****  * limitations under the License.
  23:Drivers/CMSIS/Include/cmsis_gcc.h ****  */
  24:Drivers/CMSIS/Include/cmsis_gcc.h **** 
  25:Drivers/CMSIS/Include/cmsis_gcc.h **** #ifndef __CMSIS_GCC_H
  26:Drivers/CMSIS/Include/cmsis_gcc.h **** #define __CMSIS_GCC_H
  27:Drivers/CMSIS/Include/cmsis_gcc.h **** 
  28:Drivers/CMSIS/Include/cmsis_gcc.h **** /* ignore some GCC warnings */
  29:Drivers/CMSIS/Include/cmsis_gcc.h **** #pragma GCC diagnostic push
  30:Drivers/CMSIS/Include/cmsis_gcc.h **** #pragma GCC diagnostic ignored "-Wsign-conversion"
  31:Drivers/CMSIS/Include/cmsis_gcc.h **** #pragma GCC diagnostic ignored "-Wconversion"
  32:Drivers/CMSIS/Include/cmsis_gcc.h **** #pragma GCC diagnostic ignored "-Wunused-parameter"
  33:Drivers/CMSIS/Include/cmsis_gcc.h **** 
  34:Drivers/CMSIS/Include/cmsis_gcc.h **** /* Fallback for __has_builtin */
  35:Drivers/CMSIS/Include/cmsis_gcc.h **** #ifndef __has_builtin
  36:Drivers/CMSIS/Include/cmsis_gcc.h ****   #define __has_builtin(x) (0)
  37:Drivers/CMSIS/Include/cmsis_gcc.h **** #endif
  38:Drivers/CMSIS/Include/cmsis_gcc.h **** 
ARM GAS  C:\Users\User\AppData\Local\Temp\ccEEhKx4.s 			page 101


  39:Drivers/CMSIS/Include/cmsis_gcc.h **** /* CMSIS compiler specific defines */
  40:Drivers/CMSIS/Include/cmsis_gcc.h **** #ifndef   __ASM
  41:Drivers/CMSIS/Include/cmsis_gcc.h ****   #define __ASM                                  __asm
  42:Drivers/CMSIS/Include/cmsis_gcc.h **** #endif
  43:Drivers/CMSIS/Include/cmsis_gcc.h **** #ifndef   __INLINE
  44:Drivers/CMSIS/Include/cmsis_gcc.h ****   #define __INLINE                               inline
  45:Drivers/CMSIS/Include/cmsis_gcc.h **** #endif
  46:Drivers/CMSIS/Include/cmsis_gcc.h **** #ifndef   __STATIC_INLINE
  47:Drivers/CMSIS/Include/cmsis_gcc.h ****   #define __STATIC_INLINE                        static inline
  48:Drivers/CMSIS/Include/cmsis_gcc.h **** #endif
  49:Drivers/CMSIS/Include/cmsis_gcc.h **** #ifndef   __STATIC_FORCEINLINE                 
  50:Drivers/CMSIS/Include/cmsis_gcc.h ****   #define __STATIC_FORCEINLINE                   __attribute__((always_inline)) static inline
  51:Drivers/CMSIS/Include/cmsis_gcc.h **** #endif                                           
  52:Drivers/CMSIS/Include/cmsis_gcc.h **** #ifndef   __NO_RETURN
  53:Drivers/CMSIS/Include/cmsis_gcc.h ****   #define __NO_RETURN                            __attribute__((__noreturn__))
  54:Drivers/CMSIS/Include/cmsis_gcc.h **** #endif
  55:Drivers/CMSIS/Include/cmsis_gcc.h **** #ifndef   __USED
  56:Drivers/CMSIS/Include/cmsis_gcc.h ****   #define __USED                                 __attribute__((used))
  57:Drivers/CMSIS/Include/cmsis_gcc.h **** #endif
  58:Drivers/CMSIS/Include/cmsis_gcc.h **** #ifndef   __WEAK
  59:Drivers/CMSIS/Include/cmsis_gcc.h ****   #define __WEAK                                 __attribute__((weak))
  60:Drivers/CMSIS/Include/cmsis_gcc.h **** #endif
  61:Drivers/CMSIS/Include/cmsis_gcc.h **** #ifndef   __PACKED
  62:Drivers/CMSIS/Include/cmsis_gcc.h ****   #define __PACKED                               __attribute__((packed, aligned(1)))
  63:Drivers/CMSIS/Include/cmsis_gcc.h **** #endif
  64:Drivers/CMSIS/Include/cmsis_gcc.h **** #ifndef   __PACKED_STRUCT
  65:Drivers/CMSIS/Include/cmsis_gcc.h ****   #define __PACKED_STRUCT                        struct __attribute__((packed, aligned(1)))
  66:Drivers/CMSIS/Include/cmsis_gcc.h **** #endif
  67:Drivers/CMSIS/Include/cmsis_gcc.h **** #ifndef   __PACKED_UNION
  68:Drivers/CMSIS/Include/cmsis_gcc.h ****   #define __PACKED_UNION                         union __attribute__((packed, aligned(1)))
  69:Drivers/CMSIS/Include/cmsis_gcc.h **** #endif
  70:Drivers/CMSIS/Include/cmsis_gcc.h **** #ifndef   __UNALIGNED_UINT32        /* deprecated */
  71:Drivers/CMSIS/Include/cmsis_gcc.h ****   #pragma GCC diagnostic push
  72:Drivers/CMSIS/Include/cmsis_gcc.h ****   #pragma GCC diagnostic ignored "-Wpacked"
  73:Drivers/CMSIS/Include/cmsis_gcc.h ****   #pragma GCC diagnostic ignored "-Wattributes"
  74:Drivers/CMSIS/Include/cmsis_gcc.h ****   struct __attribute__((packed)) T_UINT32 { uint32_t v; };
  75:Drivers/CMSIS/Include/cmsis_gcc.h ****   #pragma GCC diagnostic pop
  76:Drivers/CMSIS/Include/cmsis_gcc.h ****   #define __UNALIGNED_UINT32(x)                  (((struct T_UINT32 *)(x))->v)
  77:Drivers/CMSIS/Include/cmsis_gcc.h **** #endif
  78:Drivers/CMSIS/Include/cmsis_gcc.h **** #ifndef   __UNALIGNED_UINT16_WRITE
  79:Drivers/CMSIS/Include/cmsis_gcc.h ****   #pragma GCC diagnostic push
  80:Drivers/CMSIS/Include/cmsis_gcc.h ****   #pragma GCC diagnostic ignored "-Wpacked"
  81:Drivers/CMSIS/Include/cmsis_gcc.h ****   #pragma GCC diagnostic ignored "-Wattributes"
  82:Drivers/CMSIS/Include/cmsis_gcc.h ****   __PACKED_STRUCT T_UINT16_WRITE { uint16_t v; };
  83:Drivers/CMSIS/Include/cmsis_gcc.h ****   #pragma GCC diagnostic pop
  84:Drivers/CMSIS/Include/cmsis_gcc.h ****   #define __UNALIGNED_UINT16_WRITE(addr, val)    (void)((((struct T_UINT16_WRITE *)(void *)(addr))-
  85:Drivers/CMSIS/Include/cmsis_gcc.h **** #endif
  86:Drivers/CMSIS/Include/cmsis_gcc.h **** #ifndef   __UNALIGNED_UINT16_READ
  87:Drivers/CMSIS/Include/cmsis_gcc.h ****   #pragma GCC diagnostic push
  88:Drivers/CMSIS/Include/cmsis_gcc.h ****   #pragma GCC diagnostic ignored "-Wpacked"
  89:Drivers/CMSIS/Include/cmsis_gcc.h ****   #pragma GCC diagnostic ignored "-Wattributes"
  90:Drivers/CMSIS/Include/cmsis_gcc.h ****   __PACKED_STRUCT T_UINT16_READ { uint16_t v; };
  91:Drivers/CMSIS/Include/cmsis_gcc.h ****   #pragma GCC diagnostic pop
  92:Drivers/CMSIS/Include/cmsis_gcc.h ****   #define __UNALIGNED_UINT16_READ(addr)          (((const struct T_UINT16_READ *)(const void *)(add
  93:Drivers/CMSIS/Include/cmsis_gcc.h **** #endif
  94:Drivers/CMSIS/Include/cmsis_gcc.h **** #ifndef   __UNALIGNED_UINT32_WRITE
  95:Drivers/CMSIS/Include/cmsis_gcc.h ****   #pragma GCC diagnostic push
ARM GAS  C:\Users\User\AppData\Local\Temp\ccEEhKx4.s 			page 102


  96:Drivers/CMSIS/Include/cmsis_gcc.h ****   #pragma GCC diagnostic ignored "-Wpacked"
  97:Drivers/CMSIS/Include/cmsis_gcc.h ****   #pragma GCC diagnostic ignored "-Wattributes"
  98:Drivers/CMSIS/Include/cmsis_gcc.h ****   __PACKED_STRUCT T_UINT32_WRITE { uint32_t v; };
  99:Drivers/CMSIS/Include/cmsis_gcc.h ****   #pragma GCC diagnostic pop
 100:Drivers/CMSIS/Include/cmsis_gcc.h ****   #define __UNALIGNED_UINT32_WRITE(addr, val)    (void)((((struct T_UINT32_WRITE *)(void *)(addr))-
 101:Drivers/CMSIS/Include/cmsis_gcc.h **** #endif
 102:Drivers/CMSIS/Include/cmsis_gcc.h **** #ifndef   __UNALIGNED_UINT32_READ
 103:Drivers/CMSIS/Include/cmsis_gcc.h ****   #pragma GCC diagnostic push
 104:Drivers/CMSIS/Include/cmsis_gcc.h ****   #pragma GCC diagnostic ignored "-Wpacked"
 105:Drivers/CMSIS/Include/cmsis_gcc.h ****   #pragma GCC diagnostic ignored "-Wattributes"
 106:Drivers/CMSIS/Include/cmsis_gcc.h ****   __PACKED_STRUCT T_UINT32_READ { uint32_t v; };
 107:Drivers/CMSIS/Include/cmsis_gcc.h ****   #pragma GCC diagnostic pop
 108:Drivers/CMSIS/Include/cmsis_gcc.h ****   #define __UNALIGNED_UINT32_READ(addr)          (((const struct T_UINT32_READ *)(const void *)(add
 109:Drivers/CMSIS/Include/cmsis_gcc.h **** #endif
 110:Drivers/CMSIS/Include/cmsis_gcc.h **** #ifndef   __ALIGNED
 111:Drivers/CMSIS/Include/cmsis_gcc.h ****   #define __ALIGNED(x)                           __attribute__((aligned(x)))
 112:Drivers/CMSIS/Include/cmsis_gcc.h **** #endif
 113:Drivers/CMSIS/Include/cmsis_gcc.h **** #ifndef   __RESTRICT
 114:Drivers/CMSIS/Include/cmsis_gcc.h ****   #define __RESTRICT                             __restrict
 115:Drivers/CMSIS/Include/cmsis_gcc.h **** #endif
 116:Drivers/CMSIS/Include/cmsis_gcc.h **** 
 117:Drivers/CMSIS/Include/cmsis_gcc.h **** 
 118:Drivers/CMSIS/Include/cmsis_gcc.h **** /* ###########################  Core Function Access  ########################### */
 119:Drivers/CMSIS/Include/cmsis_gcc.h **** /** \ingroup  CMSIS_Core_FunctionInterface
 120:Drivers/CMSIS/Include/cmsis_gcc.h ****     \defgroup CMSIS_Core_RegAccFunctions CMSIS Core Register Access Functions
 121:Drivers/CMSIS/Include/cmsis_gcc.h ****   @{
 122:Drivers/CMSIS/Include/cmsis_gcc.h ****  */
 123:Drivers/CMSIS/Include/cmsis_gcc.h **** 
 124:Drivers/CMSIS/Include/cmsis_gcc.h **** /**
 125:Drivers/CMSIS/Include/cmsis_gcc.h ****   \brief   Enable IRQ Interrupts
 126:Drivers/CMSIS/Include/cmsis_gcc.h ****   \details Enables IRQ interrupts by clearing the I-bit in the CPSR.
 127:Drivers/CMSIS/Include/cmsis_gcc.h ****            Can only be executed in Privileged modes.
 128:Drivers/CMSIS/Include/cmsis_gcc.h ****  */
 129:Drivers/CMSIS/Include/cmsis_gcc.h **** __STATIC_FORCEINLINE void __enable_irq(void)
 130:Drivers/CMSIS/Include/cmsis_gcc.h **** {
 131:Drivers/CMSIS/Include/cmsis_gcc.h ****   __ASM volatile ("cpsie i" : : : "memory");
 132:Drivers/CMSIS/Include/cmsis_gcc.h **** }
 133:Drivers/CMSIS/Include/cmsis_gcc.h **** 
 134:Drivers/CMSIS/Include/cmsis_gcc.h **** 
 135:Drivers/CMSIS/Include/cmsis_gcc.h **** /**
 136:Drivers/CMSIS/Include/cmsis_gcc.h ****   \brief   Disable IRQ Interrupts
 137:Drivers/CMSIS/Include/cmsis_gcc.h ****   \details Disables IRQ interrupts by setting the I-bit in the CPSR.
 138:Drivers/CMSIS/Include/cmsis_gcc.h ****            Can only be executed in Privileged modes.
 139:Drivers/CMSIS/Include/cmsis_gcc.h ****  */
 140:Drivers/CMSIS/Include/cmsis_gcc.h **** __STATIC_FORCEINLINE void __disable_irq(void)
 3895              		.loc 6 140 27 view .LVU909
 3896              	.LBB36:
 141:Drivers/CMSIS/Include/cmsis_gcc.h **** {
 142:Drivers/CMSIS/Include/cmsis_gcc.h ****   __ASM volatile ("cpsid i" : : : "memory");
 3897              		.loc 6 142 3 view .LVU910
 3898              		.syntax unified
 3899              	@ 142 "Drivers/CMSIS/Include/cmsis_gcc.h" 1
 3900 013e 72B6     		cpsid i
 3901              	@ 0 "" 2
 3902              		.thumb
 3903              		.syntax unified
 3904              	.LBE36:
ARM GAS  C:\Users\User\AppData\Local\Temp\ccEEhKx4.s 			page 103


 3905              	.LBE35:
 289:Core/Src/USER/user.c **** 						if(buttons==2) {
 3906              		.loc 5 289 7 view .LVU911
 3907 0140 0022     		movs	r2, #0
 3908 0142 4749     		ldr	r1, .L291+32
 3909 0144 4748     		ldr	r0, .L291+36
 3910 0146 FFF7FEFF 		bl	HAL_RTC_GetTime
 3911              	.LVL313:
 290:Core/Src/USER/user.c **** 											tmp=currTime.Hours;
 3912              		.loc 5 290 7 view .LVU912
 290:Core/Src/USER/user.c **** 											tmp=currTime.Hours;
 3913              		.loc 5 290 17 is_stmt 0 view .LVU913
 3914 014a 3F4B     		ldr	r3, .L291+8
 3915 014c 1B78     		ldrb	r3, [r3]	@ zero_extendqisi2
 3916 014e DBB2     		uxtb	r3, r3
 290:Core/Src/USER/user.c **** 											tmp=currTime.Hours;
 3917              		.loc 5 290 9 view .LVU914
 3918 0150 022B     		cmp	r3, #2
 3919 0152 0DD0     		beq	.L281
 3920              	.L253:
 297:Core/Src/USER/user.c **** 											tmp=currTime.Hours;
 3921              		.loc 5 297 7 is_stmt 1 view .LVU915
 297:Core/Src/USER/user.c **** 											tmp=currTime.Hours;
 3922              		.loc 5 297 17 is_stmt 0 view .LVU916
 3923 0154 3C4B     		ldr	r3, .L291+8
 3924 0156 1B78     		ldrb	r3, [r3]	@ zero_extendqisi2
 3925 0158 DBB2     		uxtb	r3, r3
 297:Core/Src/USER/user.c **** 											tmp=currTime.Hours;
 3926              		.loc 5 297 9 view .LVU917
 3927 015a 042B     		cmp	r3, #4
 3928 015c 1BD0     		beq	.L282
 3929              	.L255:
 305:Core/Src/USER/user.c **** 						__enable_irq();
 3930              		.loc 5 305 7 is_stmt 1 view .LVU918
 3931 015e 0021     		movs	r1, #0
 3932 0160 0320     		movs	r0, #3
 3933 0162 FFF7FEFF 		bl	SSD1306_move
 3934              	.LVL314:
 305:Core/Src/USER/user.c **** 						__enable_irq();
 3935              		.loc 5 305 26 view .LVU919
 3936 0166 4048     		ldr	r0, .L291+40
 3937 0168 FFF7FEFF 		bl	SSD1306_puts
 3938              	.LVL315:
 306:Core/Src/USER/user.c **** 					break;
 3939              		.loc 5 306 7 view .LVU920
 3940              	.LBB37:
 3941              	.LBI37:
 129:Drivers/CMSIS/Include/cmsis_gcc.h **** {
 3942              		.loc 6 129 27 view .LVU921
 3943              	.LBB38:
 131:Drivers/CMSIS/Include/cmsis_gcc.h **** }
 3944              		.loc 6 131 3 view .LVU922
 3945              		.syntax unified
 3946              	@ 131 "Drivers/CMSIS/Include/cmsis_gcc.h" 1
 3947 016c 62B6     		cpsie i
 3948              	@ 0 "" 2
 132:Drivers/CMSIS/Include/cmsis_gcc.h **** 
ARM GAS  C:\Users\User\AppData\Local\Temp\ccEEhKx4.s 			page 104


 3949              		.loc 6 132 1 is_stmt 0 view .LVU923
 3950              		.thumb
 3951              		.syntax unified
 3952 016e C3E7     		b	.L239
 3953              	.L281:
 3954              	.LBE38:
 3955              	.LBE37:
 291:Core/Src/USER/user.c **** 											tmp++; if (tmp>23) tmp=0;
 3956              		.loc 5 291 12 is_stmt 1 view .LVU924
 291:Core/Src/USER/user.c **** 											tmp++; if (tmp>23) tmp=0;
 3957              		.loc 5 291 15 is_stmt 0 view .LVU925
 3958 0170 3B4B     		ldr	r3, .L291+32
 3959 0172 1B78     		ldrb	r3, [r3]	@ zero_extendqisi2
 3960              	.LVL316:
 292:Core/Src/USER/user.c **** 											currTime.Hours=(uint8_t)tmp;
 3961              		.loc 5 292 12 is_stmt 1 view .LVU926
 292:Core/Src/USER/user.c **** 											currTime.Hours=(uint8_t)tmp;
 3962              		.loc 5 292 15 is_stmt 0 view .LVU927
 3963 0174 0133     		adds	r3, r3, #1
 3964              	.LVL317:
 292:Core/Src/USER/user.c **** 											currTime.Hours=(uint8_t)tmp;
 3965              		.loc 5 292 15 view .LVU928
 3966 0176 DBB2     		uxtb	r3, r3
 3967              	.LVL318:
 292:Core/Src/USER/user.c **** 											currTime.Hours=(uint8_t)tmp;
 3968              		.loc 5 292 19 is_stmt 1 view .LVU929
 292:Core/Src/USER/user.c **** 											currTime.Hours=(uint8_t)tmp;
 3969              		.loc 5 292 22 is_stmt 0 view .LVU930
 3970 0178 172B     		cmp	r3, #23
 3971 017a 00D9     		bls	.L254
 292:Core/Src/USER/user.c **** 											currTime.Hours=(uint8_t)tmp;
 3972              		.loc 5 292 34 view .LVU931
 3973 017c 0023     		movs	r3, #0
 3974              	.LVL319:
 3975              	.L254:
 293:Core/Src/USER/user.c **** 											HAL_RTC_SetTime(&hrtc, &currTime, RTC_FORMAT_BIN);
 3976              		.loc 5 293 12 is_stmt 1 view .LVU932
 293:Core/Src/USER/user.c **** 											HAL_RTC_SetTime(&hrtc, &currTime, RTC_FORMAT_BIN);
 3977              		.loc 5 293 26 is_stmt 0 view .LVU933
 3978 017e 3849     		ldr	r1, .L291+32
 3979 0180 0B70     		strb	r3, [r1]
 294:Core/Src/USER/user.c **** 											show_time(); mode_delay=MODE_DELAY;
 3980              		.loc 5 294 12 is_stmt 1 view .LVU934
 3981 0182 0022     		movs	r2, #0
 3982 0184 3748     		ldr	r0, .L291+36
 3983 0186 FFF7FEFF 		bl	HAL_RTC_SetTime
 3984              	.LVL320:
 295:Core/Src/USER/user.c **** 										}
 3985              		.loc 5 295 12 view .LVU935
 3986 018a FFF7FEFF 		bl	show_time
 3987              	.LVL321:
 295:Core/Src/USER/user.c **** 										}
 3988              		.loc 5 295 25 view .LVU936
 295:Core/Src/USER/user.c **** 										}
 3989              		.loc 5 295 35 is_stmt 0 view .LVU937
 3990 018e 2F4B     		ldr	r3, .L291+12
 3991 0190 1E22     		movs	r2, #30
ARM GAS  C:\Users\User\AppData\Local\Temp\ccEEhKx4.s 			page 105


 3992 0192 1A70     		strb	r2, [r3]
 3993 0194 DEE7     		b	.L253
 3994              	.L282:
 298:Core/Src/USER/user.c **** 											tmp--;
 3995              		.loc 5 298 12 is_stmt 1 view .LVU938
 298:Core/Src/USER/user.c **** 											tmp--;
 3996              		.loc 5 298 15 is_stmt 0 view .LVU939
 3997 0196 324B     		ldr	r3, .L291+32
 3998 0198 1B78     		ldrb	r3, [r3]	@ zero_extendqisi2
 3999              	.LVL322:
 299:Core/Src/USER/user.c **** 											if(tmp == 255) {tmp=23;}
 4000              		.loc 5 299 12 is_stmt 1 view .LVU940
 299:Core/Src/USER/user.c **** 											if(tmp == 255) {tmp=23;}
 4001              		.loc 5 299 15 is_stmt 0 view .LVU941
 4002 019a 013B     		subs	r3, r3, #1
 4003              	.LVL323:
 299:Core/Src/USER/user.c **** 											if(tmp == 255) {tmp=23;}
 4004              		.loc 5 299 15 view .LVU942
 4005 019c DBB2     		uxtb	r3, r3
 4006              	.LVL324:
 300:Core/Src/USER/user.c **** 											currTime.Hours=(uint8_t)tmp;
 4007              		.loc 5 300 12 is_stmt 1 view .LVU943
 300:Core/Src/USER/user.c **** 											currTime.Hours=(uint8_t)tmp;
 4008              		.loc 5 300 14 is_stmt 0 view .LVU944
 4009 019e FF2B     		cmp	r3, #255
 4010 01a0 0BD0     		beq	.L283
 4011              	.LVL325:
 4012              	.L256:
 301:Core/Src/USER/user.c **** 											HAL_RTC_SetTime(&hrtc, &currTime, RTC_FORMAT_BIN);
 4013              		.loc 5 301 12 is_stmt 1 view .LVU945
 301:Core/Src/USER/user.c **** 											HAL_RTC_SetTime(&hrtc, &currTime, RTC_FORMAT_BIN);
 4014              		.loc 5 301 26 is_stmt 0 view .LVU946
 4015 01a2 2F49     		ldr	r1, .L291+32
 4016 01a4 0B70     		strb	r3, [r1]
 302:Core/Src/USER/user.c **** 											show_time(); mode_delay=MODE_DELAY;
 4017              		.loc 5 302 12 is_stmt 1 view .LVU947
 4018 01a6 0022     		movs	r2, #0
 4019 01a8 2E48     		ldr	r0, .L291+36
 4020 01aa FFF7FEFF 		bl	HAL_RTC_SetTime
 4021              	.LVL326:
 303:Core/Src/USER/user.c **** 										}
 4022              		.loc 5 303 12 view .LVU948
 4023 01ae FFF7FEFF 		bl	show_time
 4024              	.LVL327:
 303:Core/Src/USER/user.c **** 										}
 4025              		.loc 5 303 25 view .LVU949
 303:Core/Src/USER/user.c **** 										}
 4026              		.loc 5 303 35 is_stmt 0 view .LVU950
 4027 01b2 264B     		ldr	r3, .L291+12
 4028 01b4 1E22     		movs	r2, #30
 4029 01b6 1A70     		strb	r2, [r3]
 4030 01b8 D1E7     		b	.L255
 4031              	.LVL328:
 4032              	.L283:
 300:Core/Src/USER/user.c **** 											currTime.Hours=(uint8_t)tmp;
 4033              		.loc 5 300 31 view .LVU951
 4034 01ba 1723     		movs	r3, #23
ARM GAS  C:\Users\User\AppData\Local\Temp\ccEEhKx4.s 			page 106


 4035              	.LVL329:
 300:Core/Src/USER/user.c **** 											currTime.Hours=(uint8_t)tmp;
 4036              		.loc 5 300 31 view .LVU952
 4037 01bc F1E7     		b	.L256
 4038              	.LVL330:
 4039              	.L250:
 309:Core/Src/USER/user.c **** 						HAL_RTC_GetTime(&hrtc, &currTime, RTC_FORMAT_BIN);
 4040              		.loc 5 309 7 is_stmt 1 view .LVU953
 4041              	.LBB39:
 4042              	.LBI39:
 140:Drivers/CMSIS/Include/cmsis_gcc.h **** {
 4043              		.loc 6 140 27 view .LVU954
 4044              	.LBB40:
 4045              		.loc 6 142 3 view .LVU955
 4046              		.syntax unified
 4047              	@ 142 "Drivers/CMSIS/Include/cmsis_gcc.h" 1
 4048 01be 72B6     		cpsid i
 4049              	@ 0 "" 2
 4050              		.thumb
 4051              		.syntax unified
 4052              	.LBE40:
 4053              	.LBE39:
 310:Core/Src/USER/user.c **** 						if(buttons==2) {
 4054              		.loc 5 310 7 view .LVU956
 4055 01c0 0022     		movs	r2, #0
 4056 01c2 2749     		ldr	r1, .L291+32
 4057 01c4 2748     		ldr	r0, .L291+36
 4058 01c6 FFF7FEFF 		bl	HAL_RTC_GetTime
 4059              	.LVL331:
 311:Core/Src/USER/user.c **** 											tmp=currTime.Minutes;
 4060              		.loc 5 311 7 view .LVU957
 311:Core/Src/USER/user.c **** 											tmp=currTime.Minutes;
 4061              		.loc 5 311 17 is_stmt 0 view .LVU958
 4062 01ca 1F4B     		ldr	r3, .L291+8
 4063 01cc 1B78     		ldrb	r3, [r3]	@ zero_extendqisi2
 4064 01ce DBB2     		uxtb	r3, r3
 311:Core/Src/USER/user.c **** 											tmp=currTime.Minutes;
 4065              		.loc 5 311 9 view .LVU959
 4066 01d0 022B     		cmp	r3, #2
 4067 01d2 0DD0     		beq	.L284
 4068              	.L257:
 318:Core/Src/USER/user.c **** 											tmp=currTime.Minutes;
 4069              		.loc 5 318 7 is_stmt 1 view .LVU960
 318:Core/Src/USER/user.c **** 											tmp=currTime.Minutes;
 4070              		.loc 5 318 17 is_stmt 0 view .LVU961
 4071 01d4 1C4B     		ldr	r3, .L291+8
 4072 01d6 1B78     		ldrb	r3, [r3]	@ zero_extendqisi2
 4073 01d8 DBB2     		uxtb	r3, r3
 318:Core/Src/USER/user.c **** 											tmp=currTime.Minutes;
 4074              		.loc 5 318 9 view .LVU962
 4075 01da 042B     		cmp	r3, #4
 4076 01dc 1BD0     		beq	.L285
 4077              	.L259:
 325:Core/Src/USER/user.c **** 						__enable_irq();
 4078              		.loc 5 325 7 is_stmt 1 view .LVU963
 4079 01de 0021     		movs	r1, #0
 4080 01e0 0320     		movs	r0, #3
ARM GAS  C:\Users\User\AppData\Local\Temp\ccEEhKx4.s 			page 107


 4081 01e2 FFF7FEFF 		bl	SSD1306_move
 4082              	.LVL332:
 325:Core/Src/USER/user.c **** 						__enable_irq();
 4083              		.loc 5 325 26 view .LVU964
 4084 01e6 2148     		ldr	r0, .L291+44
 4085 01e8 FFF7FEFF 		bl	SSD1306_puts
 4086              	.LVL333:
 326:Core/Src/USER/user.c **** 					break;
 4087              		.loc 5 326 7 view .LVU965
 4088              	.LBB41:
 4089              	.LBI41:
 129:Drivers/CMSIS/Include/cmsis_gcc.h **** {
 4090              		.loc 6 129 27 view .LVU966
 4091              	.LBB42:
 131:Drivers/CMSIS/Include/cmsis_gcc.h **** }
 4092              		.loc 6 131 3 view .LVU967
 4093              		.syntax unified
 4094              	@ 131 "Drivers/CMSIS/Include/cmsis_gcc.h" 1
 4095 01ec 62B6     		cpsie i
 4096              	@ 0 "" 2
 132:Drivers/CMSIS/Include/cmsis_gcc.h **** 
 4097              		.loc 6 132 1 is_stmt 0 view .LVU968
 4098              		.thumb
 4099              		.syntax unified
 4100 01ee 83E7     		b	.L239
 4101              	.L284:
 4102              	.LBE42:
 4103              	.LBE41:
 312:Core/Src/USER/user.c **** 											tmp++; if(tmp>59) tmp=0;
 4104              		.loc 5 312 12 is_stmt 1 view .LVU969
 312:Core/Src/USER/user.c **** 											tmp++; if(tmp>59) tmp=0;
 4105              		.loc 5 312 15 is_stmt 0 view .LVU970
 4106 01f0 1B4B     		ldr	r3, .L291+32
 4107 01f2 5B78     		ldrb	r3, [r3, #1]	@ zero_extendqisi2
 4108              	.LVL334:
 313:Core/Src/USER/user.c **** 											currTime.Minutes=(uint8_t)tmp;
 4109              		.loc 5 313 12 is_stmt 1 view .LVU971
 313:Core/Src/USER/user.c **** 											currTime.Minutes=(uint8_t)tmp;
 4110              		.loc 5 313 15 is_stmt 0 view .LVU972
 4111 01f4 0133     		adds	r3, r3, #1
 4112              	.LVL335:
 313:Core/Src/USER/user.c **** 											currTime.Minutes=(uint8_t)tmp;
 4113              		.loc 5 313 15 view .LVU973
 4114 01f6 DBB2     		uxtb	r3, r3
 4115              	.LVL336:
 313:Core/Src/USER/user.c **** 											currTime.Minutes=(uint8_t)tmp;
 4116              		.loc 5 313 19 is_stmt 1 view .LVU974
 313:Core/Src/USER/user.c **** 											currTime.Minutes=(uint8_t)tmp;
 4117              		.loc 5 313 21 is_stmt 0 view .LVU975
 4118 01f8 3B2B     		cmp	r3, #59
 4119 01fa 00D9     		bls	.L258
 313:Core/Src/USER/user.c **** 											currTime.Minutes=(uint8_t)tmp;
 4120              		.loc 5 313 33 view .LVU976
 4121 01fc 0023     		movs	r3, #0
 4122              	.LVL337:
 4123              	.L258:
 314:Core/Src/USER/user.c **** 											HAL_RTC_SetTime(&hrtc, &currTime, RTC_FORMAT_BIN);
ARM GAS  C:\Users\User\AppData\Local\Temp\ccEEhKx4.s 			page 108


 4124              		.loc 5 314 12 is_stmt 1 view .LVU977
 314:Core/Src/USER/user.c **** 											HAL_RTC_SetTime(&hrtc, &currTime, RTC_FORMAT_BIN);
 4125              		.loc 5 314 28 is_stmt 0 view .LVU978
 4126 01fe 1849     		ldr	r1, .L291+32
 4127 0200 4B70     		strb	r3, [r1, #1]
 315:Core/Src/USER/user.c **** 											show_time(); mode_delay=MODE_DELAY;
 4128              		.loc 5 315 12 is_stmt 1 view .LVU979
 4129 0202 0022     		movs	r2, #0
 4130 0204 1748     		ldr	r0, .L291+36
 4131 0206 FFF7FEFF 		bl	HAL_RTC_SetTime
 4132              	.LVL338:
 316:Core/Src/USER/user.c **** 										}
 4133              		.loc 5 316 12 view .LVU980
 4134 020a FFF7FEFF 		bl	show_time
 4135              	.LVL339:
 316:Core/Src/USER/user.c **** 										}
 4136              		.loc 5 316 25 view .LVU981
 316:Core/Src/USER/user.c **** 										}
 4137              		.loc 5 316 35 is_stmt 0 view .LVU982
 4138 020e 0F4B     		ldr	r3, .L291+12
 4139 0210 1E22     		movs	r2, #30
 4140 0212 1A70     		strb	r2, [r3]
 4141 0214 DEE7     		b	.L257
 4142              	.L285:
 319:Core/Src/USER/user.c **** 											tmp--; if(tmp ==255 ) {tmp=59;}
 4143              		.loc 5 319 12 is_stmt 1 view .LVU983
 319:Core/Src/USER/user.c **** 											tmp--; if(tmp ==255 ) {tmp=59;}
 4144              		.loc 5 319 15 is_stmt 0 view .LVU984
 4145 0216 124B     		ldr	r3, .L291+32
 4146 0218 5B78     		ldrb	r3, [r3, #1]	@ zero_extendqisi2
 4147              	.LVL340:
 320:Core/Src/USER/user.c **** 											currTime.Minutes=(uint8_t)tmp;
 4148              		.loc 5 320 12 is_stmt 1 view .LVU985
 320:Core/Src/USER/user.c **** 											currTime.Minutes=(uint8_t)tmp;
 4149              		.loc 5 320 15 is_stmt 0 view .LVU986
 4150 021a 013B     		subs	r3, r3, #1
 4151              	.LVL341:
 320:Core/Src/USER/user.c **** 											currTime.Minutes=(uint8_t)tmp;
 4152              		.loc 5 320 15 view .LVU987
 4153 021c DBB2     		uxtb	r3, r3
 4154              	.LVL342:
 320:Core/Src/USER/user.c **** 											currTime.Minutes=(uint8_t)tmp;
 4155              		.loc 5 320 19 is_stmt 1 view .LVU988
 320:Core/Src/USER/user.c **** 											currTime.Minutes=(uint8_t)tmp;
 4156              		.loc 5 320 21 is_stmt 0 view .LVU989
 4157 021e FF2B     		cmp	r3, #255
 4158 0220 0BD0     		beq	.L286
 4159              	.LVL343:
 4160              	.L260:
 321:Core/Src/USER/user.c **** 											HAL_RTC_SetTime(&hrtc, &currTime, RTC_FORMAT_BIN);
 4161              		.loc 5 321 12 is_stmt 1 view .LVU990
 321:Core/Src/USER/user.c **** 											HAL_RTC_SetTime(&hrtc, &currTime, RTC_FORMAT_BIN);
 4162              		.loc 5 321 28 is_stmt 0 view .LVU991
 4163 0222 0F49     		ldr	r1, .L291+32
 4164 0224 4B70     		strb	r3, [r1, #1]
 322:Core/Src/USER/user.c **** 											show_time(); mode_delay=MODE_DELAY;
 4165              		.loc 5 322 12 is_stmt 1 view .LVU992
ARM GAS  C:\Users\User\AppData\Local\Temp\ccEEhKx4.s 			page 109


 4166 0226 0022     		movs	r2, #0
 4167 0228 0E48     		ldr	r0, .L291+36
 4168 022a FFF7FEFF 		bl	HAL_RTC_SetTime
 4169              	.LVL344:
 323:Core/Src/USER/user.c **** 										}
 4170              		.loc 5 323 12 view .LVU993
 4171 022e FFF7FEFF 		bl	show_time
 4172              	.LVL345:
 323:Core/Src/USER/user.c **** 										}
 4173              		.loc 5 323 25 view .LVU994
 323:Core/Src/USER/user.c **** 										}
 4174              		.loc 5 323 35 is_stmt 0 view .LVU995
 4175 0232 064B     		ldr	r3, .L291+12
 4176 0234 1E22     		movs	r2, #30
 4177 0236 1A70     		strb	r2, [r3]
 4178 0238 D1E7     		b	.L259
 4179              	.LVL346:
 4180              	.L286:
 320:Core/Src/USER/user.c **** 											currTime.Minutes=(uint8_t)tmp;
 4181              		.loc 5 320 38 view .LVU996
 4182 023a 3B23     		movs	r3, #59
 4183              	.LVL347:
 320:Core/Src/USER/user.c **** 											currTime.Minutes=(uint8_t)tmp;
 4184              		.loc 5 320 38 view .LVU997
 4185 023c F1E7     		b	.L260
 4186              	.L292:
 4187 023e 00BF     		.align	2
 4188              	.L291:
 4189 0240 00000000 		.word	.LANCHOR12
 4190 0244 00080140 		.word	1073809408
 4191 0248 00000000 		.word	.LANCHOR15
 4192 024c 00000000 		.word	.LANCHOR17
 4193 0250 00000000 		.word	.LANCHOR19
 4194 0254 00000000 		.word	.LANCHOR20
 4195 0258 00000000 		.word	.LANCHOR18
 4196 025c 00000000 		.word	.LC3
 4197 0260 00000000 		.word	.LANCHOR2
 4198 0264 00000000 		.word	.LANCHOR3
 4199 0268 14000000 		.word	.LC4
 4200 026c 24000000 		.word	.LC5
 4201              	.LVL348:
 4202              	.L249:
 329:Core/Src/USER/user.c **** 						if(buttons==2) {
 4203              		.loc 5 329 6 is_stmt 1 view .LVU998
 4204              	.LBB43:
 4205              	.LBI43:
 140:Drivers/CMSIS/Include/cmsis_gcc.h **** {
 4206              		.loc 6 140 27 view .LVU999
 4207              	.LBB44:
 4208              		.loc 6 142 3 view .LVU1000
 4209              		.syntax unified
 4210              	@ 142 "Drivers/CMSIS/Include/cmsis_gcc.h" 1
 4211 0270 72B6     		cpsid i
 4212              	@ 0 "" 2
 4213              		.thumb
 4214              		.syntax unified
 4215              	.LBE44:
ARM GAS  C:\Users\User\AppData\Local\Temp\ccEEhKx4.s 			page 110


 4216              	.LBE43:
 330:Core/Src/USER/user.c **** 											start_hour++;
 4217              		.loc 5 330 7 view .LVU1001
 330:Core/Src/USER/user.c **** 											start_hour++;
 4218              		.loc 5 330 17 is_stmt 0 view .LVU1002
 4219 0272 4C4B     		ldr	r3, .L293
 4220 0274 1B78     		ldrb	r3, [r3]	@ zero_extendqisi2
 4221 0276 DBB2     		uxtb	r3, r3
 330:Core/Src/USER/user.c **** 											start_hour++;
 4222              		.loc 5 330 9 view .LVU1003
 4223 0278 022B     		cmp	r3, #2
 4224 027a 26D0     		beq	.L287
 336:Core/Src/USER/user.c **** 											start_hour--;
 4225              		.loc 5 336 12 is_stmt 1 view .LVU1004
 336:Core/Src/USER/user.c **** 											start_hour--;
 4226              		.loc 5 336 22 is_stmt 0 view .LVU1005
 4227 027c 494B     		ldr	r3, .L293
 4228 027e 1B78     		ldrb	r3, [r3]	@ zero_extendqisi2
 4229 0280 DBB2     		uxtb	r3, r3
 336:Core/Src/USER/user.c **** 											start_hour--;
 4230              		.loc 5 336 14 view .LVU1006
 4231 0282 042B     		cmp	r3, #4
 4232 0284 2ED0     		beq	.L288
 4233              	.L262:
 342:Core/Src/USER/user.c **** 						SSD1306_move(3,0); SSD1306_puts("Start hour:"); SSD1306_puts(text);
 4234              		.loc 5 342 7 is_stmt 1 view .LVU1007
 342:Core/Src/USER/user.c **** 						SSD1306_move(3,0); SSD1306_puts("Start hour:"); SSD1306_puts(text);
 4235              		.loc 5 342 28 is_stmt 0 view .LVU1008
 4236 0286 4849     		ldr	r1, .L293+4
 4237 0288 0A88     		ldrh	r2, [r1]
 4238 028a 92B2     		uxth	r2, r2
 4239 028c 474B     		ldr	r3, .L293+8
 4240 028e A3FB0202 		umull	r0, r2, r3, r2
 4241 0292 D208     		lsrs	r2, r2, #3
 4242 0294 3032     		adds	r2, r2, #48
 342:Core/Src/USER/user.c **** 						SSD1306_move(3,0); SSD1306_puts("Start hour:"); SSD1306_puts(text);
 4243              		.loc 5 342 14 view .LVU1009
 4244 0296 8DF80020 		strb	r2, [sp]
 342:Core/Src/USER/user.c **** 						SSD1306_move(3,0); SSD1306_puts("Start hour:"); SSD1306_puts(text);
 4245              		.loc 5 342 34 is_stmt 1 view .LVU1010
 342:Core/Src/USER/user.c **** 						SSD1306_move(3,0); SSD1306_puts("Start hour:"); SSD1306_puts(text);
 4246              		.loc 5 342 57 is_stmt 0 view .LVU1011
 4247 029a 0A88     		ldrh	r2, [r1]
 4248 029c 92B2     		uxth	r2, r2
 4249 029e A3FB0213 		umull	r1, r3, r3, r2
 4250 02a2 DB08     		lsrs	r3, r3, #3
 4251 02a4 03EB8303 		add	r3, r3, r3, lsl #2
 4252 02a8 A2EB4303 		sub	r3, r2, r3, lsl #1
 4253 02ac 3033     		adds	r3, r3, #48
 342:Core/Src/USER/user.c **** 						SSD1306_move(3,0); SSD1306_puts("Start hour:"); SSD1306_puts(text);
 4254              		.loc 5 342 41 view .LVU1012
 4255 02ae 8DF80130 		strb	r3, [sp, #1]
 343:Core/Src/USER/user.c **** 						__enable_irq();
 4256              		.loc 5 343 7 is_stmt 1 view .LVU1013
 4257 02b2 0021     		movs	r1, #0
 4258 02b4 0320     		movs	r0, #3
 4259 02b6 FFF7FEFF 		bl	SSD1306_move
ARM GAS  C:\Users\User\AppData\Local\Temp\ccEEhKx4.s 			page 111


 4260              	.LVL349:
 343:Core/Src/USER/user.c **** 						__enable_irq();
 4261              		.loc 5 343 26 view .LVU1014
 4262 02ba 3D48     		ldr	r0, .L293+12
 4263 02bc FFF7FEFF 		bl	SSD1306_puts
 4264              	.LVL350:
 343:Core/Src/USER/user.c **** 						__enable_irq();
 4265              		.loc 5 343 55 view .LVU1015
 4266 02c0 6846     		mov	r0, sp
 4267 02c2 FFF7FEFF 		bl	SSD1306_puts
 4268              	.LVL351:
 344:Core/Src/USER/user.c **** 					break;
 4269              		.loc 5 344 7 view .LVU1016
 4270              	.LBB45:
 4271              	.LBI45:
 129:Drivers/CMSIS/Include/cmsis_gcc.h **** {
 4272              		.loc 6 129 27 view .LVU1017
 4273              	.LBB46:
 131:Drivers/CMSIS/Include/cmsis_gcc.h **** }
 4274              		.loc 6 131 3 view .LVU1018
 4275              		.syntax unified
 4276              	@ 131 "Drivers/CMSIS/Include/cmsis_gcc.h" 1
 4277 02c6 62B6     		cpsie i
 4278              	@ 0 "" 2
 132:Drivers/CMSIS/Include/cmsis_gcc.h **** 
 4279              		.loc 6 132 1 is_stmt 0 view .LVU1019
 4280              		.thumb
 4281              		.syntax unified
 4282 02c8 16E7     		b	.L239
 4283              	.L287:
 4284              	.LBE46:
 4285              	.LBE45:
 331:Core/Src/USER/user.c **** 											if (start_hour > 23) {tmp=0;}
 4286              		.loc 5 331 12 is_stmt 1 view .LVU1020
 331:Core/Src/USER/user.c **** 											if (start_hour > 23) {tmp=0;}
 4287              		.loc 5 331 22 is_stmt 0 view .LVU1021
 4288 02ca 374A     		ldr	r2, .L293+4
 4289 02cc 1388     		ldrh	r3, [r2]
 4290 02ce 9BB2     		uxth	r3, r3
 4291 02d0 0133     		adds	r3, r3, #1
 4292 02d2 9BB2     		uxth	r3, r3
 4293 02d4 1380     		strh	r3, [r2]	@ movhi
 332:Core/Src/USER/user.c **** 											Write_Start_stop();
 4294              		.loc 5 332 12 is_stmt 1 view .LVU1022
 332:Core/Src/USER/user.c **** 											Write_Start_stop();
 4295              		.loc 5 332 27 is_stmt 0 view .LVU1023
 4296 02d6 1388     		ldrh	r3, [r2]
 333:Core/Src/USER/user.c **** 											mode_delay=MODE_DELAY;
 4297              		.loc 5 333 12 is_stmt 1 view .LVU1024
 4298 02d8 FFF7FEFF 		bl	Write_Start_stop
 4299              	.LVL352:
 334:Core/Src/USER/user.c **** 										}
 4300              		.loc 5 334 12 view .LVU1025
 334:Core/Src/USER/user.c **** 										}
 4301              		.loc 5 334 22 is_stmt 0 view .LVU1026
 4302 02dc 354B     		ldr	r3, .L293+16
 4303 02de 1E22     		movs	r2, #30
ARM GAS  C:\Users\User\AppData\Local\Temp\ccEEhKx4.s 			page 112


 4304 02e0 1A70     		strb	r2, [r3]
 4305 02e2 D0E7     		b	.L262
 4306              	.L288:
 337:Core/Src/USER/user.c **** 											if(start_hour > 25) {tmp=23;}
 4307              		.loc 5 337 12 is_stmt 1 view .LVU1027
 337:Core/Src/USER/user.c **** 											if(start_hour > 25) {tmp=23;}
 4308              		.loc 5 337 22 is_stmt 0 view .LVU1028
 4309 02e4 304A     		ldr	r2, .L293+4
 4310 02e6 1388     		ldrh	r3, [r2]
 4311 02e8 9BB2     		uxth	r3, r3
 4312 02ea 013B     		subs	r3, r3, #1
 4313 02ec 9BB2     		uxth	r3, r3
 4314 02ee 1380     		strh	r3, [r2]	@ movhi
 338:Core/Src/USER/user.c **** 											Write_Start_stop();
 4315              		.loc 5 338 12 is_stmt 1 view .LVU1029
 338:Core/Src/USER/user.c **** 											Write_Start_stop();
 4316              		.loc 5 338 26 is_stmt 0 view .LVU1030
 4317 02f0 1388     		ldrh	r3, [r2]
 339:Core/Src/USER/user.c **** 											mode_delay=MODE_DELAY;
 4318              		.loc 5 339 12 is_stmt 1 view .LVU1031
 4319 02f2 FFF7FEFF 		bl	Write_Start_stop
 4320              	.LVL353:
 340:Core/Src/USER/user.c **** 										}
 4321              		.loc 5 340 12 view .LVU1032
 340:Core/Src/USER/user.c **** 										}
 4322              		.loc 5 340 22 is_stmt 0 view .LVU1033
 4323 02f6 2F4B     		ldr	r3, .L293+16
 4324 02f8 1E22     		movs	r2, #30
 4325 02fa 1A70     		strb	r2, [r3]
 4326 02fc C3E7     		b	.L262
 4327              	.L247:
 347:Core/Src/USER/user.c **** 						if(buttons==2) {
 4328              		.loc 5 347 6 is_stmt 1 view .LVU1034
 4329              	.LBB47:
 4330              	.LBI47:
 140:Drivers/CMSIS/Include/cmsis_gcc.h **** {
 4331              		.loc 6 140 27 view .LVU1035
 4332              	.LBB48:
 4333              		.loc 6 142 3 view .LVU1036
 4334              		.syntax unified
 4335              	@ 142 "Drivers/CMSIS/Include/cmsis_gcc.h" 1
 4336 02fe 72B6     		cpsid i
 4337              	@ 0 "" 2
 4338              		.thumb
 4339              		.syntax unified
 4340              	.LBE48:
 4341              	.LBE47:
 348:Core/Src/USER/user.c **** 											start_minutes++;
 4342              		.loc 5 348 7 view .LVU1037
 348:Core/Src/USER/user.c **** 											start_minutes++;
 4343              		.loc 5 348 17 is_stmt 0 view .LVU1038
 4344 0300 284B     		ldr	r3, .L293
 4345 0302 1B78     		ldrb	r3, [r3]	@ zero_extendqisi2
 4346 0304 DBB2     		uxtb	r3, r3
 348:Core/Src/USER/user.c **** 											start_minutes++;
 4347              		.loc 5 348 9 view .LVU1039
 4348 0306 022B     		cmp	r3, #2
ARM GAS  C:\Users\User\AppData\Local\Temp\ccEEhKx4.s 			page 113


 4349 0308 26D0     		beq	.L289
 354:Core/Src/USER/user.c **** 											start_minutes--;
 4350              		.loc 5 354 12 is_stmt 1 view .LVU1040
 354:Core/Src/USER/user.c **** 											start_minutes--;
 4351              		.loc 5 354 22 is_stmt 0 view .LVU1041
 4352 030a 264B     		ldr	r3, .L293
 4353 030c 1B78     		ldrb	r3, [r3]	@ zero_extendqisi2
 4354 030e DBB2     		uxtb	r3, r3
 354:Core/Src/USER/user.c **** 											start_minutes--;
 4355              		.loc 5 354 14 view .LVU1042
 4356 0310 042B     		cmp	r3, #4
 4357 0312 34D0     		beq	.L290
 4358              	.L265:
 360:Core/Src/USER/user.c **** 						SSD1306_move(3,0); SSD1306_puts("Start min:"); SSD1306_puts(text);
 4359              		.loc 5 360 7 is_stmt 1 view .LVU1043
 360:Core/Src/USER/user.c **** 						SSD1306_move(3,0); SSD1306_puts("Start min:"); SSD1306_puts(text);
 4360              		.loc 5 360 31 is_stmt 0 view .LVU1044
 4361 0314 2849     		ldr	r1, .L293+20
 4362 0316 0A88     		ldrh	r2, [r1]
 4363 0318 92B2     		uxth	r2, r2
 4364 031a 244B     		ldr	r3, .L293+8
 4365 031c A3FB0202 		umull	r0, r2, r3, r2
 4366 0320 D208     		lsrs	r2, r2, #3
 4367 0322 3032     		adds	r2, r2, #48
 360:Core/Src/USER/user.c **** 						SSD1306_move(3,0); SSD1306_puts("Start min:"); SSD1306_puts(text);
 4368              		.loc 5 360 14 view .LVU1045
 4369 0324 8DF80020 		strb	r2, [sp]
 360:Core/Src/USER/user.c **** 						SSD1306_move(3,0); SSD1306_puts("Start min:"); SSD1306_puts(text);
 4370              		.loc 5 360 37 is_stmt 1 view .LVU1046
 360:Core/Src/USER/user.c **** 						SSD1306_move(3,0); SSD1306_puts("Start min:"); SSD1306_puts(text);
 4371              		.loc 5 360 63 is_stmt 0 view .LVU1047
 4372 0328 0A88     		ldrh	r2, [r1]
 4373 032a 92B2     		uxth	r2, r2
 4374 032c A3FB0213 		umull	r1, r3, r3, r2
 4375 0330 DB08     		lsrs	r3, r3, #3
 4376 0332 03EB8303 		add	r3, r3, r3, lsl #2
 4377 0336 A2EB4303 		sub	r3, r2, r3, lsl #1
 4378 033a 3033     		adds	r3, r3, #48
 360:Core/Src/USER/user.c **** 						SSD1306_move(3,0); SSD1306_puts("Start min:"); SSD1306_puts(text);
 4379              		.loc 5 360 44 view .LVU1048
 4380 033c 8DF80130 		strb	r3, [sp, #1]
 361:Core/Src/USER/user.c **** 						__enable_irq();
 4381              		.loc 5 361 7 is_stmt 1 view .LVU1049
 4382 0340 0021     		movs	r1, #0
 4383 0342 0320     		movs	r0, #3
 4384 0344 FFF7FEFF 		bl	SSD1306_move
 4385              	.LVL354:
 361:Core/Src/USER/user.c **** 						__enable_irq();
 4386              		.loc 5 361 26 view .LVU1050
 4387 0348 1C48     		ldr	r0, .L293+24
 4388 034a FFF7FEFF 		bl	SSD1306_puts
 4389              	.LVL355:
 361:Core/Src/USER/user.c **** 						__enable_irq();
 4390              		.loc 5 361 54 view .LVU1051
 4391 034e 6846     		mov	r0, sp
 4392 0350 FFF7FEFF 		bl	SSD1306_puts
 4393              	.LVL356:
ARM GAS  C:\Users\User\AppData\Local\Temp\ccEEhKx4.s 			page 114


 362:Core/Src/USER/user.c **** 					break;
 4394              		.loc 5 362 7 view .LVU1052
 4395              	.LBB49:
 4396              	.LBI49:
 129:Drivers/CMSIS/Include/cmsis_gcc.h **** {
 4397              		.loc 6 129 27 view .LVU1053
 4398              	.LBB50:
 131:Drivers/CMSIS/Include/cmsis_gcc.h **** }
 4399              		.loc 6 131 3 view .LVU1054
 4400              		.syntax unified
 4401              	@ 131 "Drivers/CMSIS/Include/cmsis_gcc.h" 1
 4402 0354 62B6     		cpsie i
 4403              	@ 0 "" 2
 4404              		.thumb
 4405              		.syntax unified
 4406              	.LBE50:
 4407              	.LBE49:
 370:Core/Src/USER/user.c **** 
 4408              		.loc 5 370 1 is_stmt 0 view .LVU1055
 4409 0356 CFE6     		b	.L239
 4410              	.L289:
 349:Core/Src/USER/user.c **** 											if (start_minutes > 59) {start_minutes=0;}
 4411              		.loc 5 349 12 is_stmt 1 view .LVU1056
 349:Core/Src/USER/user.c **** 											if (start_minutes > 59) {start_minutes=0;}
 4412              		.loc 5 349 25 is_stmt 0 view .LVU1057
 4413 0358 174A     		ldr	r2, .L293+20
 4414 035a 1388     		ldrh	r3, [r2]
 4415 035c 9BB2     		uxth	r3, r3
 4416 035e 0133     		adds	r3, r3, #1
 4417 0360 9BB2     		uxth	r3, r3
 4418 0362 1380     		strh	r3, [r2]	@ movhi
 350:Core/Src/USER/user.c **** 											Write_Start_stop();
 4419              		.loc 5 350 12 is_stmt 1 view .LVU1058
 350:Core/Src/USER/user.c **** 											Write_Start_stop();
 4420              		.loc 5 350 30 is_stmt 0 view .LVU1059
 4421 0364 1388     		ldrh	r3, [r2]
 4422 0366 9BB2     		uxth	r3, r3
 350:Core/Src/USER/user.c **** 											Write_Start_stop();
 4423              		.loc 5 350 15 view .LVU1060
 4424 0368 3B2B     		cmp	r3, #59
 4425 036a 02D9     		bls	.L264
 350:Core/Src/USER/user.c **** 											Write_Start_stop();
 4426              		.loc 5 350 37 is_stmt 1 discriminator 1 view .LVU1061
 350:Core/Src/USER/user.c **** 											Write_Start_stop();
 4427              		.loc 5 350 50 is_stmt 0 discriminator 1 view .LVU1062
 4428 036c 1346     		mov	r3, r2
 4429 036e 0022     		movs	r2, #0
 4430 0370 1A80     		strh	r2, [r3]	@ movhi
 4431              	.L264:
 351:Core/Src/USER/user.c **** 											mode_delay=MODE_DELAY;
 4432              		.loc 5 351 12 is_stmt 1 view .LVU1063
 4433 0372 FFF7FEFF 		bl	Write_Start_stop
 4434              	.LVL357:
 352:Core/Src/USER/user.c **** 										}
 4435              		.loc 5 352 12 view .LVU1064
 352:Core/Src/USER/user.c **** 										}
 4436              		.loc 5 352 22 is_stmt 0 view .LVU1065
ARM GAS  C:\Users\User\AppData\Local\Temp\ccEEhKx4.s 			page 115


 4437 0376 0F4B     		ldr	r3, .L293+16
 4438 0378 1E22     		movs	r2, #30
 4439 037a 1A70     		strb	r2, [r3]
 4440 037c CAE7     		b	.L265
 4441              	.L290:
 355:Core/Src/USER/user.c **** 											if(start_minutes > 60) {start_minutes=59;}
 4442              		.loc 5 355 12 is_stmt 1 view .LVU1066
 355:Core/Src/USER/user.c **** 											if(start_minutes > 60) {start_minutes=59;}
 4443              		.loc 5 355 25 is_stmt 0 view .LVU1067
 4444 037e 0E4A     		ldr	r2, .L293+20
 4445 0380 1388     		ldrh	r3, [r2]
 4446 0382 9BB2     		uxth	r3, r3
 4447 0384 013B     		subs	r3, r3, #1
 4448 0386 9BB2     		uxth	r3, r3
 4449 0388 1380     		strh	r3, [r2]	@ movhi
 356:Core/Src/USER/user.c **** 											Write_Start_stop();
 4450              		.loc 5 356 12 is_stmt 1 view .LVU1068
 356:Core/Src/USER/user.c **** 											Write_Start_stop();
 4451              		.loc 5 356 29 is_stmt 0 view .LVU1069
 4452 038a 1388     		ldrh	r3, [r2]
 4453 038c 9BB2     		uxth	r3, r3
 356:Core/Src/USER/user.c **** 											Write_Start_stop();
 4454              		.loc 5 356 14 view .LVU1070
 4455 038e 3C2B     		cmp	r3, #60
 4456 0390 02D9     		bls	.L266
 356:Core/Src/USER/user.c **** 											Write_Start_stop();
 4457              		.loc 5 356 36 is_stmt 1 discriminator 1 view .LVU1071
 356:Core/Src/USER/user.c **** 											Write_Start_stop();
 4458              		.loc 5 356 49 is_stmt 0 discriminator 1 view .LVU1072
 4459 0392 1346     		mov	r3, r2
 4460 0394 3B22     		movs	r2, #59
 4461 0396 1A80     		strh	r2, [r3]	@ movhi
 4462              	.L266:
 357:Core/Src/USER/user.c **** 											mode_delay=MODE_DELAY;
 4463              		.loc 5 357 12 is_stmt 1 view .LVU1073
 4464 0398 FFF7FEFF 		bl	Write_Start_stop
 4465              	.LVL358:
 358:Core/Src/USER/user.c **** 										}
 4466              		.loc 5 358 12 view .LVU1074
 358:Core/Src/USER/user.c **** 										}
 4467              		.loc 5 358 22 is_stmt 0 view .LVU1075
 4468 039c 054B     		ldr	r3, .L293+16
 4469 039e 1E22     		movs	r2, #30
 4470 03a0 1A70     		strb	r2, [r3]
 4471 03a2 B7E7     		b	.L265
 4472              	.L294:
 4473              		.align	2
 4474              	.L293:
 4475 03a4 00000000 		.word	.LANCHOR15
 4476 03a8 00000000 		.word	.LANCHOR13
 4477 03ac CDCCCCCC 		.word	-858993459
 4478 03b0 34000000 		.word	.LC6
 4479 03b4 00000000 		.word	.LANCHOR17
 4480 03b8 00000000 		.word	.LANCHOR14
 4481 03bc 40000000 		.word	.LC7
 4482              		.cfi_endproc
 4483              	.LFE124:
ARM GAS  C:\Users\User\AppData\Local\Temp\ccEEhKx4.s 			page 116


 4485              		.section	.text.Error_Handler,"ax",%progbits
 4486              		.align	1
 4487              		.global	Error_Handler
 4488              		.syntax unified
 4489              		.thumb
 4490              		.thumb_func
 4492              	Error_Handler:
 4493              	.LFB134:
 497:Core/Src/main.c **** 
 498:Core/Src/main.c **** /* USER CODE BEGIN 4 */
 499:Core/Src/main.c **** 
 500:Core/Src/main.c **** /* USER CODE END 4 */
 501:Core/Src/main.c **** 
 502:Core/Src/main.c **** /**
 503:Core/Src/main.c ****   * @brief  This function is executed in case of error occurrence.
 504:Core/Src/main.c ****   * @retval None
 505:Core/Src/main.c ****   */
 506:Core/Src/main.c **** void Error_Handler(void)
 507:Core/Src/main.c **** {
 4494              		.loc 2 507 1 is_stmt 1 view -0
 4495              		.cfi_startproc
 4496              		@ Volatile: function does not return.
 4497              		@ args = 0, pretend = 0, frame = 0
 4498              		@ frame_needed = 0, uses_anonymous_args = 0
 4499              		@ link register save eliminated.
 508:Core/Src/main.c ****   /* USER CODE BEGIN Error_Handler_Debug */
 509:Core/Src/main.c ****   /* User can add his own implementation to report the HAL error return state */
 510:Core/Src/main.c ****   __disable_irq();
 4500              		.loc 2 510 3 view .LVU1077
 4501              	.LBB51:
 4502              	.LBI51:
 140:Drivers/CMSIS/Include/cmsis_gcc.h **** {
 4503              		.loc 6 140 27 view .LVU1078
 4504              	.LBB52:
 4505              		.loc 6 142 3 view .LVU1079
 4506              		.syntax unified
 4507              	@ 142 "Drivers/CMSIS/Include/cmsis_gcc.h" 1
 4508 0000 72B6     		cpsid i
 4509              	@ 0 "" 2
 4510              		.thumb
 4511              		.syntax unified
 4512              	.L296:
 4513              	.LBE52:
 4514              	.LBE51:
 511:Core/Src/main.c ****   while (1)
 4515              		.loc 2 511 3 discriminator 1 view .LVU1080
 512:Core/Src/main.c ****   {
 513:Core/Src/main.c ****   }
 4516              		.loc 2 513 3 discriminator 1 view .LVU1081
 511:Core/Src/main.c ****   while (1)
 4517              		.loc 2 511 9 discriminator 1 view .LVU1082
 4518 0002 FEE7     		b	.L296
 4519              		.cfi_endproc
 4520              	.LFE134:
 4522              		.section	.text.rtc_set_date_text,"ax",%progbits
 4523              		.align	1
 4524              		.global	rtc_set_date_text
ARM GAS  C:\Users\User\AppData\Local\Temp\ccEEhKx4.s 			page 117


 4525              		.syntax unified
 4526              		.thumb
 4527              		.thumb_func
 4529              	rtc_set_date_text:
 4530              	.LVL359:
 4531              	.LFB70:
  56:Core/Src/USER/rtc.c **** {
 4532              		.loc 3 56 1 view -0
 4533              		.cfi_startproc
 4534              		@ args = 0, pretend = 0, frame = 8
 4535              		@ frame_needed = 0, uses_anonymous_args = 0
  56:Core/Src/USER/rtc.c **** {
 4536              		.loc 3 56 1 is_stmt 0 view .LVU1084
 4537 0000 10B5     		push	{r4, lr}
 4538              	.LCFI82:
 4539              		.cfi_def_cfa_offset 8
 4540              		.cfi_offset 4, -8
 4541              		.cfi_offset 14, -4
 4542 0002 82B0     		sub	sp, sp, #8
 4543              	.LCFI83:
 4544              		.cfi_def_cfa_offset 16
 4545 0004 0446     		mov	r4, r0
  57:Core/Src/USER/rtc.c **** filter_string(Buf);
 4546              		.loc 3 57 1 is_stmt 1 view .LVU1085
 4547 0006 FFF7FEFF 		bl	filter_string
 4548              	.LVL360:
  60:Core/Src/USER/rtc.c **** RTC_DateTypeDef dienos;
 4549              		.loc 3 60 1 view .LVU1086
  62:Core/Src/USER/rtc.c **** if(strlen(Buf)<8) return;
 4550              		.loc 3 62 1 view .LVU1087
  62:Core/Src/USER/rtc.c **** if(strlen(Buf)<8) return;
 4551              		.loc 3 62 4 is_stmt 0 view .LVU1088
 4552 000a 2046     		mov	r0, r4
 4553 000c FFF7FEFF 		bl	strlen
 4554              	.LVL361:
  62:Core/Src/USER/rtc.c **** if(strlen(Buf)<8) return;
 4555              		.loc 3 62 3 view .LVU1089
 4556 0010 0728     		cmp	r0, #7
 4557 0012 01D8     		bhi	.L302
 4558              	.L297:
  80:Core/Src/USER/rtc.c **** }
 4559              		.loc 3 80 1 view .LVU1090
 4560 0014 02B0     		add	sp, sp, #8
 4561              	.LCFI84:
 4562              		.cfi_remember_state
 4563              		.cfi_def_cfa_offset 8
 4564              		@ sp needed
 4565 0016 10BD     		pop	{r4, pc}
 4566              	.LVL362:
 4567              	.L302:
 4568              	.LCFI85:
 4569              		.cfi_restore_state
  63:Core/Src/USER/rtc.c **** 	char delim[] = ".";
 4570              		.loc 3 63 2 is_stmt 1 view .LVU1091
  63:Core/Src/USER/rtc.c **** 	char delim[] = ".";
 4571              		.loc 3 63 7 is_stmt 0 view .LVU1092
 4572 0018 2E23     		movs	r3, #46
ARM GAS  C:\Users\User\AppData\Local\Temp\ccEEhKx4.s 			page 118


 4573 001a ADF80030 		strh	r3, [sp]	@ movhi
  65:Core/Src/USER/rtc.c **** 	char *ptr = strtok(Buf, delim);
 4574              		.loc 3 65 2 is_stmt 1 view .LVU1093
  65:Core/Src/USER/rtc.c **** 	char *ptr = strtok(Buf, delim);
 4575              		.loc 3 65 14 is_stmt 0 view .LVU1094
 4576 001e 6946     		mov	r1, sp
 4577 0020 2046     		mov	r0, r4
 4578 0022 FFF7FEFF 		bl	strtok
 4579              	.LVL363:
  66:Core/Src/USER/rtc.c **** 	dienos.Year=atoi(ptr);
 4580              		.loc 3 66 2 is_stmt 1 view .LVU1095
  66:Core/Src/USER/rtc.c **** 	dienos.Year=atoi(ptr);
 4581              		.loc 3 66 14 is_stmt 0 view .LVU1096
 4582 0026 FFF7FEFF 		bl	atoi
 4583              	.LVL364:
  66:Core/Src/USER/rtc.c **** 	dienos.Year=atoi(ptr);
 4584              		.loc 3 66 13 view .LVU1097
 4585 002a 8DF80700 		strb	r0, [sp, #7]
  68:Core/Src/USER/rtc.c **** 	ptr = strtok(NULL, delim);
 4586              		.loc 3 68 2 is_stmt 1 view .LVU1098
  68:Core/Src/USER/rtc.c **** 	ptr = strtok(NULL, delim);
 4587              		.loc 3 68 8 is_stmt 0 view .LVU1099
 4588 002e 6946     		mov	r1, sp
 4589 0030 0020     		movs	r0, #0
 4590 0032 FFF7FEFF 		bl	strtok
 4591              	.LVL365:
  69:Core/Src/USER/rtc.c **** 	dienos.Month=atoi(ptr);
 4592              		.loc 3 69 2 is_stmt 1 view .LVU1100
  69:Core/Src/USER/rtc.c **** 	dienos.Month=atoi(ptr);
 4593              		.loc 3 69 15 is_stmt 0 view .LVU1101
 4594 0036 FFF7FEFF 		bl	atoi
 4595              	.LVL366:
  69:Core/Src/USER/rtc.c **** 	dienos.Month=atoi(ptr);
 4596              		.loc 3 69 14 view .LVU1102
 4597 003a 8DF80500 		strb	r0, [sp, #5]
  71:Core/Src/USER/rtc.c **** 	ptr = strtok(NULL, delim);
 4598              		.loc 3 71 2 is_stmt 1 view .LVU1103
  71:Core/Src/USER/rtc.c **** 	ptr = strtok(NULL, delim);
 4599              		.loc 3 71 8 is_stmt 0 view .LVU1104
 4600 003e 6946     		mov	r1, sp
 4601 0040 0020     		movs	r0, #0
 4602 0042 FFF7FEFF 		bl	strtok
 4603              	.LVL367:
  72:Core/Src/USER/rtc.c **** 	dienos.Date=atoi(ptr);
 4604              		.loc 3 72 2 is_stmt 1 view .LVU1105
  72:Core/Src/USER/rtc.c **** 	dienos.Date=atoi(ptr);
 4605              		.loc 3 72 14 is_stmt 0 view .LVU1106
 4606 0046 FFF7FEFF 		bl	atoi
 4607              	.LVL368:
  72:Core/Src/USER/rtc.c **** 	dienos.Date=atoi(ptr);
 4608              		.loc 3 72 13 view .LVU1107
 4609 004a 8DF80600 		strb	r0, [sp, #6]
  74:Core/Src/USER/rtc.c ****  if (HAL_RTC_SetDate(&hrtc, &dienos, RTC_FORMAT_BIN) != HAL_OK)
 4610              		.loc 3 74 2 is_stmt 1 view .LVU1108
  74:Core/Src/USER/rtc.c ****  if (HAL_RTC_SetDate(&hrtc, &dienos, RTC_FORMAT_BIN) != HAL_OK)
 4611              		.loc 3 74 6 is_stmt 0 view .LVU1109
 4612 004e 0022     		movs	r2, #0
ARM GAS  C:\Users\User\AppData\Local\Temp\ccEEhKx4.s 			page 119


 4613 0050 01A9     		add	r1, sp, #4
 4614 0052 0348     		ldr	r0, .L303
 4615 0054 FFF7FEFF 		bl	HAL_RTC_SetDate
 4616              	.LVL369:
  74:Core/Src/USER/rtc.c ****  if (HAL_RTC_SetDate(&hrtc, &dienos, RTC_FORMAT_BIN) != HAL_OK)
 4617              		.loc 3 74 5 view .LVU1110
 4618 0058 0028     		cmp	r0, #0
 4619 005a DBD0     		beq	.L297
  76:Core/Src/USER/rtc.c ****     Error_Handler();
 4620              		.loc 3 76 5 is_stmt 1 view .LVU1111
 4621 005c FFF7FEFF 		bl	Error_Handler
 4622              	.LVL370:
 4623              	.L304:
 4624              		.align	2
 4625              	.L303:
 4626 0060 00000000 		.word	.LANCHOR3
 4627              		.cfi_endproc
 4628              	.LFE70:
 4630              		.section	.text.rtc_set_time_text,"ax",%progbits
 4631              		.align	1
 4632              		.global	rtc_set_time_text
 4633              		.syntax unified
 4634              		.thumb
 4635              		.thumb_func
 4637              	rtc_set_time_text:
 4638              	.LVL371:
 4639              	.LFB71:
  84:Core/Src/USER/rtc.c **** {
 4640              		.loc 3 84 1 view -0
 4641              		.cfi_startproc
 4642              		@ args = 0, pretend = 0, frame = 8
 4643              		@ frame_needed = 0, uses_anonymous_args = 0
  84:Core/Src/USER/rtc.c **** {
 4644              		.loc 3 84 1 is_stmt 0 view .LVU1113
 4645 0000 10B5     		push	{r4, lr}
 4646              	.LCFI86:
 4647              		.cfi_def_cfa_offset 8
 4648              		.cfi_offset 4, -8
 4649              		.cfi_offset 14, -4
 4650 0002 82B0     		sub	sp, sp, #8
 4651              	.LCFI87:
 4652              		.cfi_def_cfa_offset 16
 4653 0004 0446     		mov	r4, r0
  89:Core/Src/USER/rtc.c **** filter_string(Buf);
 4654              		.loc 3 89 1 is_stmt 1 view .LVU1114
 4655 0006 FFF7FEFF 		bl	filter_string
 4656              	.LVL372:
  91:Core/Src/USER/rtc.c **** if(strlen(Buf)<8) return;
 4657              		.loc 3 91 1 view .LVU1115
  91:Core/Src/USER/rtc.c **** if(strlen(Buf)<8) return;
 4658              		.loc 3 91 4 is_stmt 0 view .LVU1116
 4659 000a 2046     		mov	r0, r4
 4660 000c FFF7FEFF 		bl	strlen
 4661              	.LVL373:
  91:Core/Src/USER/rtc.c **** if(strlen(Buf)<8) return;
 4662              		.loc 3 91 3 view .LVU1117
 4663 0010 0728     		cmp	r0, #7
ARM GAS  C:\Users\User\AppData\Local\Temp\ccEEhKx4.s 			page 120


 4664 0012 01D8     		bhi	.L310
 4665              	.LVL374:
 4666              	.L305:
 109:Core/Src/USER/rtc.c **** }
 4667              		.loc 3 109 1 view .LVU1118
 4668 0014 02B0     		add	sp, sp, #8
 4669              	.LCFI88:
 4670              		.cfi_remember_state
 4671              		.cfi_def_cfa_offset 8
 4672              		@ sp needed
 4673 0016 10BD     		pop	{r4, pc}
 4674              	.LVL375:
 4675              	.L310:
 4676              	.LCFI89:
 4677              		.cfi_restore_state
  93:Core/Src/USER/rtc.c **** 	char delim[] = ":";
 4678              		.loc 3 93 2 is_stmt 1 view .LVU1119
  93:Core/Src/USER/rtc.c **** 	char delim[] = ":";
 4679              		.loc 3 93 7 is_stmt 0 view .LVU1120
 4680 0018 3A23     		movs	r3, #58
 4681 001a ADF80430 		strh	r3, [sp, #4]	@ movhi
  95:Core/Src/USER/rtc.c **** 	char *ptr = strtok(Buf, delim);
 4682              		.loc 3 95 2 is_stmt 1 view .LVU1121
  95:Core/Src/USER/rtc.c **** 	char *ptr = strtok(Buf, delim);
 4683              		.loc 3 95 14 is_stmt 0 view .LVU1122
 4684 001e 01A9     		add	r1, sp, #4
 4685 0020 2046     		mov	r0, r4
 4686 0022 FFF7FEFF 		bl	strtok
 4687              	.LVL376:
  96:Core/Src/USER/rtc.c **** 	currTime.Hours=atoi(ptr);
 4688              		.loc 3 96 2 is_stmt 1 view .LVU1123
  96:Core/Src/USER/rtc.c **** 	currTime.Hours=atoi(ptr);
 4689              		.loc 3 96 17 is_stmt 0 view .LVU1124
 4690 0026 FFF7FEFF 		bl	atoi
 4691              	.LVL377:
  96:Core/Src/USER/rtc.c **** 	currTime.Hours=atoi(ptr);
 4692              		.loc 3 96 16 view .LVU1125
 4693 002a 0C4C     		ldr	r4, .L311
 4694              	.LVL378:
  96:Core/Src/USER/rtc.c **** 	currTime.Hours=atoi(ptr);
 4695              		.loc 3 96 16 view .LVU1126
 4696 002c 2070     		strb	r0, [r4]
  98:Core/Src/USER/rtc.c **** 	ptr = strtok(NULL, delim);
 4697              		.loc 3 98 2 is_stmt 1 view .LVU1127
  98:Core/Src/USER/rtc.c **** 	ptr = strtok(NULL, delim);
 4698              		.loc 3 98 8 is_stmt 0 view .LVU1128
 4699 002e 01A9     		add	r1, sp, #4
 4700 0030 0020     		movs	r0, #0
 4701 0032 FFF7FEFF 		bl	strtok
 4702              	.LVL379:
  99:Core/Src/USER/rtc.c **** 	currTime.Minutes=atoi(ptr);
 4703              		.loc 3 99 2 is_stmt 1 view .LVU1129
  99:Core/Src/USER/rtc.c **** 	currTime.Minutes=atoi(ptr);
 4704              		.loc 3 99 19 is_stmt 0 view .LVU1130
 4705 0036 FFF7FEFF 		bl	atoi
 4706              	.LVL380:
  99:Core/Src/USER/rtc.c **** 	currTime.Minutes=atoi(ptr);
ARM GAS  C:\Users\User\AppData\Local\Temp\ccEEhKx4.s 			page 121


 4707              		.loc 3 99 18 view .LVU1131
 4708 003a 6070     		strb	r0, [r4, #1]
 101:Core/Src/USER/rtc.c **** 	ptr = strtok(NULL, delim);
 4709              		.loc 3 101 2 is_stmt 1 view .LVU1132
 101:Core/Src/USER/rtc.c **** 	ptr = strtok(NULL, delim);
 4710              		.loc 3 101 8 is_stmt 0 view .LVU1133
 4711 003c 01A9     		add	r1, sp, #4
 4712 003e 0020     		movs	r0, #0
 4713 0040 FFF7FEFF 		bl	strtok
 4714              	.LVL381:
 102:Core/Src/USER/rtc.c **** 	currTime.Seconds=atoi(ptr);
 4715              		.loc 3 102 2 is_stmt 1 view .LVU1134
 102:Core/Src/USER/rtc.c **** 	currTime.Seconds=atoi(ptr);
 4716              		.loc 3 102 19 is_stmt 0 view .LVU1135
 4717 0044 FFF7FEFF 		bl	atoi
 4718              	.LVL382:
 102:Core/Src/USER/rtc.c **** 	currTime.Seconds=atoi(ptr);
 4719              		.loc 3 102 18 view .LVU1136
 4720 0048 A070     		strb	r0, [r4, #2]
 104:Core/Src/USER/rtc.c ****  if (HAL_RTC_SetTime(&hrtc, &currTime, RTC_FORMAT_BIN) != HAL_OK)
 4721              		.loc 3 104 2 is_stmt 1 view .LVU1137
 104:Core/Src/USER/rtc.c ****  if (HAL_RTC_SetTime(&hrtc, &currTime, RTC_FORMAT_BIN) != HAL_OK)
 4722              		.loc 3 104 6 is_stmt 0 view .LVU1138
 4723 004a 0022     		movs	r2, #0
 4724 004c 2146     		mov	r1, r4
 4725 004e 0448     		ldr	r0, .L311+4
 4726 0050 FFF7FEFF 		bl	HAL_RTC_SetTime
 4727              	.LVL383:
 104:Core/Src/USER/rtc.c ****  if (HAL_RTC_SetTime(&hrtc, &currTime, RTC_FORMAT_BIN) != HAL_OK)
 4728              		.loc 3 104 5 view .LVU1139
 4729 0054 0028     		cmp	r0, #0
 4730 0056 DDD0     		beq	.L305
 106:Core/Src/USER/rtc.c ****     Error_Handler();
 4731              		.loc 3 106 5 is_stmt 1 view .LVU1140
 4732 0058 FFF7FEFF 		bl	Error_Handler
 4733              	.LVL384:
 4734              	.L312:
 4735              		.align	2
 4736              	.L311:
 4737 005c 00000000 		.word	.LANCHOR2
 4738 0060 00000000 		.word	.LANCHOR3
 4739              		.cfi_endproc
 4740              	.LFE71:
 4742              		.section	.rodata.commandcom.str1.4,"aMS",%progbits,1
 4743              		.align	2
 4744              	.LC8:
 4745 0000 39482043 		.ascii	"9H CLOCK\015\012(c)2023 Vabolis.lt\015\012 \000"
 4745      4C4F434B 
 4745      0D0A2863 
 4745      29323032 
 4745      33205661 
 4746              		.align	2
 4747              	.LC9:
 4748 0020 4E657720 		.ascii	"New start time set.\015\012 \000"
 4748      73746172 
 4748      74207469 
 4748      6D652073 
ARM GAS  C:\Users\User\AppData\Local\Temp\ccEEhKx4.s 			page 122


 4748      65742E0D 
 4749              		.section	.text.commandcom,"ax",%progbits
 4750              		.align	1
 4751              		.global	commandcom
 4752              		.syntax unified
 4753              		.thumb
 4754              		.thumb_func
 4756              	commandcom:
 4757              	.LVL385:
 4758              	.LFB120:
 137:Core/Src/USER/user.c **** 
 4759              		.loc 5 137 1 view -0
 4760              		.cfi_startproc
 4761              		@ args = 0, pretend = 0, frame = 0
 4762              		@ frame_needed = 0, uses_anonymous_args = 0
 137:Core/Src/USER/user.c **** 
 4763              		.loc 5 137 1 is_stmt 0 view .LVU1142
 4764 0000 38B5     		push	{r3, r4, r5, lr}
 4765              	.LCFI90:
 4766              		.cfi_def_cfa_offset 16
 4767              		.cfi_offset 3, -16
 4768              		.cfi_offset 4, -12
 4769              		.cfi_offset 5, -8
 4770              		.cfi_offset 14, -4
 139:Core/Src/USER/user.c **** 
 4771              		.loc 5 139 1 is_stmt 1 view .LVU1143
 139:Core/Src/USER/user.c **** 
 4772              		.loc 5 139 8 is_stmt 0 view .LVU1144
 4773 0002 0378     		ldrb	r3, [r0]	@ zero_extendqisi2
 139:Core/Src/USER/user.c **** 
 4774              		.loc 5 139 4 view .LVU1145
 4775 0004 412B     		cmp	r3, #65
 4776 0006 30D1     		bne	.L313
 4777 0008 0446     		mov	r4, r0
 139:Core/Src/USER/user.c **** 
 4778              		.loc 5 139 24 discriminator 2 view .LVU1146
 4779 000a 4378     		ldrb	r3, [r0, #1]	@ zero_extendqisi2
 139:Core/Src/USER/user.c **** 
 4780              		.loc 5 139 18 discriminator 2 view .LVU1147
 4781 000c 542B     		cmp	r3, #84
 4782 000e 2CD1     		bne	.L313
 141:Core/Src/USER/user.c **** 	{
 4783              		.loc 5 141 2 is_stmt 1 view .LVU1148
 141:Core/Src/USER/user.c **** 	{
 4784              		.loc 5 141 12 is_stmt 0 view .LVU1149
 4785 0010 8378     		ldrb	r3, [r0, #2]	@ zero_extendqisi2
 141:Core/Src/USER/user.c **** 	{
 4786              		.loc 5 141 2 view .LVU1150
 4787 0012 413B     		subs	r3, r3, #65
 4788 0014 132B     		cmp	r3, #19
 4789 0016 53D8     		bhi	.L315
 4790 0018 DFE803F0 		tbb	[pc, r3]
 4791              	.L317:
 4792 001c 37       		.byte	(.L321-.L317)/2
 4793 001d 52       		.byte	(.L315-.L317)/2
 4794 001e 52       		.byte	(.L315-.L317)/2
 4795 001f 17       		.byte	(.L320-.L317)/2
ARM GAS  C:\Users\User\AppData\Local\Temp\ccEEhKx4.s 			page 123


 4796 0020 52       		.byte	(.L315-.L317)/2
 4797 0021 52       		.byte	(.L315-.L317)/2
 4798 0022 52       		.byte	(.L315-.L317)/2
 4799 0023 52       		.byte	(.L315-.L317)/2
 4800 0024 28       		.byte	(.L319-.L317)/2
 4801 0025 52       		.byte	(.L315-.L317)/2
 4802 0026 52       		.byte	(.L315-.L317)/2
 4803 0027 52       		.byte	(.L315-.L317)/2
 4804 0028 52       		.byte	(.L315-.L317)/2
 4805 0029 52       		.byte	(.L315-.L317)/2
 4806 002a 52       		.byte	(.L315-.L317)/2
 4807 002b 52       		.byte	(.L315-.L317)/2
 4808 002c 52       		.byte	(.L315-.L317)/2
 4809 002d 52       		.byte	(.L315-.L317)/2
 4810 002e 2D       		.byte	(.L318-.L317)/2
 4811 002f 0A       		.byte	(.L316-.L317)/2
 4812              		.p2align 1
 4813              	.L316:
 144:Core/Src/USER/user.c **** 			rtc_time_string(txt); txt[8]='\r'; txt[9]='\n';
 4814              		.loc 5 144 4 is_stmt 1 view .LVU1151
 4815 0030 0330     		adds	r0, r0, #3
 4816              	.LVL386:
 144:Core/Src/USER/user.c **** 			rtc_time_string(txt); txt[8]='\r'; txt[9]='\n';
 4817              		.loc 5 144 4 is_stmt 0 view .LVU1152
 4818 0032 FFF7FEFF 		bl	rtc_set_time_text
 4819              	.LVL387:
 145:Core/Src/USER/user.c **** 			CDC_Transmit_FS((uint8_t*) txt,10);
 4820              		.loc 5 145 4 is_stmt 1 view .LVU1153
 4821 0036 2046     		mov	r0, r4
 4822 0038 FFF7FEFF 		bl	rtc_time_string
 4823              	.LVL388:
 145:Core/Src/USER/user.c **** 			CDC_Transmit_FS((uint8_t*) txt,10);
 4824              		.loc 5 145 26 view .LVU1154
 145:Core/Src/USER/user.c **** 			CDC_Transmit_FS((uint8_t*) txt,10);
 4825              		.loc 5 145 32 is_stmt 0 view .LVU1155
 4826 003c 0D23     		movs	r3, #13
 4827 003e 2372     		strb	r3, [r4, #8]
 145:Core/Src/USER/user.c **** 			CDC_Transmit_FS((uint8_t*) txt,10);
 4828              		.loc 5 145 39 is_stmt 1 view .LVU1156
 145:Core/Src/USER/user.c **** 			CDC_Transmit_FS((uint8_t*) txt,10);
 4829              		.loc 5 145 45 is_stmt 0 view .LVU1157
 4830 0040 0A21     		movs	r1, #10
 4831 0042 6172     		strb	r1, [r4, #9]
 146:Core/Src/USER/user.c **** 		break;
 4832              		.loc 5 146 4 is_stmt 1 view .LVU1158
 4833 0044 2046     		mov	r0, r4
 4834 0046 FFF7FEFF 		bl	CDC_Transmit_FS
 4835              	.LVL389:
 147:Core/Src/USER/user.c **** 		case 'D':
 4836              		.loc 5 147 3 view .LVU1159
 4837              	.L320:
 177:Core/Src/USER/user.c **** 	mode_delay=MODE_DELAY;
 4838              		.loc 5 177 2 view .LVU1160
 177:Core/Src/USER/user.c **** 	mode_delay=MODE_DELAY;
 4839              		.loc 5 177 6 is_stmt 0 view .LVU1161
 4840 004a 1F4B     		ldr	r3, .L323
 4841 004c 0022     		movs	r2, #0
ARM GAS  C:\Users\User\AppData\Local\Temp\ccEEhKx4.s 			page 124


 4842 004e 1A70     		strb	r2, [r3]
 178:Core/Src/USER/user.c **** 	sleep_delay=SLEEP_DELAY;
 4843              		.loc 5 178 2 is_stmt 1 view .LVU1162
 178:Core/Src/USER/user.c **** 	sleep_delay=SLEEP_DELAY;
 4844              		.loc 5 178 12 is_stmt 0 view .LVU1163
 4845 0050 1E4B     		ldr	r3, .L323+4
 4846 0052 1E22     		movs	r2, #30
 4847 0054 1A70     		strb	r2, [r3]
 179:Core/Src/USER/user.c **** 	SSD1306_command1(SSD1306_DISPLAYON);
 4848              		.loc 5 179 2 is_stmt 1 view .LVU1164
 179:Core/Src/USER/user.c **** 	SSD1306_command1(SSD1306_DISPLAYON);
 4849              		.loc 5 179 13 is_stmt 0 view .LVU1165
 4850 0056 1E4B     		ldr	r3, .L323+8
 4851 0058 4FF49672 		mov	r2, #300
 4852 005c 1A60     		str	r2, [r3]
 180:Core/Src/USER/user.c **** 	old_buttons=255;
 4853              		.loc 5 180 2 is_stmt 1 view .LVU1166
 4854 005e AF20     		movs	r0, #175
 4855 0060 FFF7FEFF 		bl	SSD1306_command1
 4856              	.LVL390:
 181:Core/Src/USER/user.c **** }
 4857              		.loc 5 181 2 view .LVU1167
 181:Core/Src/USER/user.c **** }
 4858              		.loc 5 181 13 is_stmt 0 view .LVU1168
 4859 0064 1B4B     		ldr	r3, .L323+12
 4860 0066 FF22     		movs	r2, #255
 4861 0068 1A70     		strb	r2, [r3]
 4862              	.LVL391:
 4863              	.L313:
 182:Core/Src/USER/user.c **** 
 4864              		.loc 5 182 1 view .LVU1169
 4865 006a 38BD     		pop	{r3, r4, r5, pc}
 4866              	.LVL392:
 4867              	.L319:
 154:Core/Src/USER/user.c **** 		break;
 4868              		.loc 5 154 4 is_stmt 1 view .LVU1170
 4869 006c 1E21     		movs	r1, #30
 4870 006e 1A48     		ldr	r0, .L323+16
 4871              	.LVL393:
 154:Core/Src/USER/user.c **** 		break;
 4872              		.loc 5 154 4 is_stmt 0 view .LVU1171
 4873 0070 FFF7FEFF 		bl	CDC_Transmit_FS
 4874              	.LVL394:
 155:Core/Src/USER/user.c **** 		case 'S':
 4875              		.loc 5 155 3 is_stmt 1 view .LVU1172
 4876 0074 E9E7     		b	.L320
 4877              	.LVL395:
 4878              	.L318:
 157:Core/Src/USER/user.c **** 			Write_Start_stop();
 4879              		.loc 5 157 4 view .LVU1173
 4880 0076 0330     		adds	r0, r0, #3
 4881              	.LVL396:
 157:Core/Src/USER/user.c **** 			Write_Start_stop();
 4882              		.loc 5 157 4 is_stmt 0 view .LVU1174
 4883 0078 FFF7FEFF 		bl	set_start_text
 4884              	.LVL397:
 158:Core/Src/USER/user.c **** 			
ARM GAS  C:\Users\User\AppData\Local\Temp\ccEEhKx4.s 			page 125


 4885              		.loc 5 158 4 is_stmt 1 view .LVU1175
 4886 007c FFF7FEFF 		bl	Write_Start_stop
 4887              	.LVL398:
 160:Core/Src/USER/user.c **** 		break;
 4888              		.loc 5 160 4 view .LVU1176
 4889 0080 1521     		movs	r1, #21
 4890 0082 1648     		ldr	r0, .L323+20
 4891 0084 FFF7FEFF 		bl	CDC_Transmit_FS
 4892              	.LVL399:
 161:Core/Src/USER/user.c **** 		case 'A':
 4893              		.loc 5 161 3 view .LVU1177
 4894 0088 DFE7     		b	.L320
 4895              	.LVL400:
 4896              	.L321:
 163:Core/Src/USER/user.c **** 			HAL_IWDG_Refresh(&hiwdg);
 4897              		.loc 5 163 4 view .LVU1178
 4898              	.LBB53:
 4899              	.LBI53:
 140:Drivers/CMSIS/Include/cmsis_gcc.h **** {
 4900              		.loc 6 140 27 view .LVU1179
 4901              	.LBB54:
 4902              		.loc 6 142 3 view .LVU1180
 4903              		.syntax unified
 4904              	@ 142 "Drivers/CMSIS/Include/cmsis_gcc.h" 1
 4905 008a 72B6     		cpsid i
 4906              	@ 0 "" 2
 4907              		.thumb
 4908              		.syntax unified
 4909              	.LBE54:
 4910              	.LBE53:
 164:Core/Src/USER/user.c **** 			__HAL_TIM_SET_COMPARE(&htim1,TIM_CHANNEL_1,atoi(txt+3));
 4911              		.loc 5 164 4 view .LVU1181
 4912 008c 144D     		ldr	r5, .L323+24
 4913 008e 2846     		mov	r0, r5
 4914              	.LVL401:
 164:Core/Src/USER/user.c **** 			__HAL_TIM_SET_COMPARE(&htim1,TIM_CHANNEL_1,atoi(txt+3));
 4915              		.loc 5 164 4 is_stmt 0 view .LVU1182
 4916 0090 FFF7FEFF 		bl	HAL_IWDG_Refresh
 4917              	.LVL402:
 165:Core/Src/USER/user.c **** 			HAL_Delay(1000);
 4918              		.loc 5 165 4 is_stmt 1 view .LVU1183
 4919 0094 E01C     		adds	r0, r4, #3
 4920 0096 FFF7FEFF 		bl	atoi
 4921              	.LVL403:
 4922 009a 124B     		ldr	r3, .L323+28
 4923 009c 1B68     		ldr	r3, [r3]
 4924 009e 5863     		str	r0, [r3, #52]
 166:Core/Src/USER/user.c **** 			HAL_IWDG_Refresh(&hiwdg);
 4925              		.loc 5 166 4 view .LVU1184
 4926 00a0 4FF47A70 		mov	r0, #1000
 4927 00a4 FFF7FEFF 		bl	HAL_Delay
 4928              	.LVL404:
 167:Core/Src/USER/user.c **** 			HAL_Delay(1000);
 4929              		.loc 5 167 4 view .LVU1185
 4930 00a8 2846     		mov	r0, r5
 4931 00aa FFF7FEFF 		bl	HAL_IWDG_Refresh
 4932              	.LVL405:
ARM GAS  C:\Users\User\AppData\Local\Temp\ccEEhKx4.s 			page 126


 168:Core/Src/USER/user.c **** 			HAL_IWDG_Refresh(&hiwdg);
 4933              		.loc 5 168 4 view .LVU1186
 4934 00ae 4FF47A70 		mov	r0, #1000
 4935 00b2 FFF7FEFF 		bl	HAL_Delay
 4936              	.LVL406:
 169:Core/Src/USER/user.c **** 			__enable_irq();
 4937              		.loc 5 169 4 view .LVU1187
 4938 00b6 2846     		mov	r0, r5
 4939 00b8 FFF7FEFF 		bl	HAL_IWDG_Refresh
 4940              	.LVL407:
 170:Core/Src/USER/user.c **** 		break;
 4941              		.loc 5 170 4 view .LVU1188
 4942              	.LBB55:
 4943              	.LBI55:
 129:Drivers/CMSIS/Include/cmsis_gcc.h **** {
 4944              		.loc 6 129 27 view .LVU1189
 4945              	.LBB56:
 131:Drivers/CMSIS/Include/cmsis_gcc.h **** }
 4946              		.loc 6 131 3 view .LVU1190
 4947              		.syntax unified
 4948              	@ 131 "Drivers/CMSIS/Include/cmsis_gcc.h" 1
 4949 00bc 62B6     		cpsie i
 4950              	@ 0 "" 2
 132:Drivers/CMSIS/Include/cmsis_gcc.h **** 
 4951              		.loc 6 132 1 is_stmt 0 view .LVU1191
 4952              		.thumb
 4953              		.syntax unified
 4954 00be C4E7     		b	.L320
 4955              	.LVL408:
 4956              	.L315:
 132:Drivers/CMSIS/Include/cmsis_gcc.h **** 
 4957              		.loc 6 132 1 view .LVU1192
 4958              	.LBE56:
 4959              	.LBE55:
 173:Core/Src/USER/user.c **** 		break;
 4960              		.loc 5 173 4 is_stmt 1 view .LVU1193
 4961 00c0 FFF7FEFF 		bl	show_help
 4962              	.LVL409:
 174:Core/Src/USER/user.c **** 	}
 4963              		.loc 5 174 3 view .LVU1194
 4964 00c4 C1E7     		b	.L320
 4965              	.L324:
 4966 00c6 00BF     		.align	2
 4967              	.L323:
 4968 00c8 00000000 		.word	.LANCHOR18
 4969 00cc 00000000 		.word	.LANCHOR17
 4970 00d0 00000000 		.word	.LANCHOR19
 4971 00d4 00000000 		.word	.LANCHOR20
 4972 00d8 00000000 		.word	.LC8
 4973 00dc 20000000 		.word	.LC9
 4974 00e0 00000000 		.word	.LANCHOR10
 4975 00e4 00000000 		.word	.LANCHOR11
 4976              		.cfi_endproc
 4977              	.LFE120:
 4979              		.section	.text.user_loop,"ax",%progbits
 4980              		.align	1
 4981              		.global	user_loop
ARM GAS  C:\Users\User\AppData\Local\Temp\ccEEhKx4.s 			page 127


 4982              		.syntax unified
 4983              		.thumb
 4984              		.thumb_func
 4986              	user_loop:
 4987              	.LFB121:
 186:Core/Src/USER/user.c **** char a;
 4988              		.loc 5 186 1 view -0
 4989              		.cfi_startproc
 4990              		@ args = 0, pretend = 0, frame = 32
 4991              		@ frame_needed = 0, uses_anonymous_args = 0
 4992 0000 10B5     		push	{r4, lr}
 4993              	.LCFI91:
 4994              		.cfi_def_cfa_offset 8
 4995              		.cfi_offset 4, -8
 4996              		.cfi_offset 14, -4
 4997 0002 88B0     		sub	sp, sp, #32
 4998              	.LCFI92:
 4999              		.cfi_def_cfa_offset 40
 187:Core/Src/USER/user.c **** char txt[32];
 5000              		.loc 5 187 1 view .LVU1196
 188:Core/Src/USER/user.c **** unsigned char txtp=0;
 5001              		.loc 5 188 1 view .LVU1197
 189:Core/Src/USER/user.c **** 
 5002              		.loc 5 189 1 view .LVU1198
 5003              	.LVL410:
 189:Core/Src/USER/user.c **** 
 5004              		.loc 5 189 15 is_stmt 0 view .LVU1199
 5005 0004 0024     		movs	r4, #0
 5006              	.LVL411:
 5007              	.L331:
 191:Core/Src/USER/user.c **** 	{
 5008              		.loc 5 191 1 is_stmt 1 view .LVU1200
 193:Core/Src/USER/user.c **** 	while(circle_available(&cc)>0) 
 5009              		.loc 5 193 2 view .LVU1201
 5010 0006 1648     		ldr	r0, .L335
 5011 0008 FFF7FEFF 		bl	HAL_IWDG_Refresh
 5012              	.LVL412:
 194:Core/Src/USER/user.c **** 		{
 5013              		.loc 5 194 2 view .LVU1202
 5014              	.L326:
 194:Core/Src/USER/user.c **** 		{
 5015              		.loc 5 194 7 view .LVU1203
 194:Core/Src/USER/user.c **** 		{
 5016              		.loc 5 194 8 is_stmt 0 view .LVU1204
 5017 000c 1548     		ldr	r0, .L335+4
 5018 000e FFF7FEFF 		bl	circle_available
 5019              	.LVL413:
 194:Core/Src/USER/user.c **** 		{
 5020              		.loc 5 194 7 view .LVU1205
 5021 0012 0028     		cmp	r0, #0
 5022 0014 F7D0     		beq	.L331
 196:Core/Src/USER/user.c **** 			
 5023              		.loc 5 196 4 is_stmt 1 view .LVU1206
 196:Core/Src/USER/user.c **** 			
 5024              		.loc 5 196 6 is_stmt 0 view .LVU1207
 5025 0016 1348     		ldr	r0, .L335+4
 5026 0018 FFF7FEFF 		bl	circle_pull
ARM GAS  C:\Users\User\AppData\Local\Temp\ccEEhKx4.s 			page 128


 5027              	.LVL414:
 198:Core/Src/USER/user.c **** 			{
 5028              		.loc 5 198 4 is_stmt 1 view .LVU1208
 198:Core/Src/USER/user.c **** 			{
 5029              		.loc 5 198 15 is_stmt 0 view .LVU1209
 5030 001c A0F12003 		sub	r3, r0, #32
 5031 0020 DBB2     		uxtb	r3, r3
 198:Core/Src/USER/user.c **** 			{
 5032              		.loc 5 198 7 view .LVU1210
 5033 0022 5A2B     		cmp	r3, #90
 5034 0024 10D8     		bhi	.L327
 200:Core/Src/USER/user.c **** 				txtp++;
 5035              		.loc 5 200 5 is_stmt 1 view .LVU1211
 200:Core/Src/USER/user.c **** 				txtp++;
 5036              		.loc 5 200 14 is_stmt 0 view .LVU1212
 5037 0026 04F12003 		add	r3, r4, #32
 5038 002a 6B44     		add	r3, sp, r3
 5039 002c 03F8200C 		strb	r0, [r3, #-32]
 201:Core/Src/USER/user.c **** 				txt[txtp]=0;
 5040              		.loc 5 201 5 is_stmt 1 view .LVU1213
 201:Core/Src/USER/user.c **** 				txt[txtp]=0;
 5041              		.loc 5 201 9 is_stmt 0 view .LVU1214
 5042 0030 0134     		adds	r4, r4, #1
 5043              	.LVL415:
 201:Core/Src/USER/user.c **** 				txt[txtp]=0;
 5044              		.loc 5 201 9 view .LVU1215
 5045 0032 E4B2     		uxtb	r4, r4
 5046              	.LVL416:
 202:Core/Src/USER/user.c **** 				if (txtp >30) {txtp=0;}
 5047              		.loc 5 202 5 is_stmt 1 view .LVU1216
 202:Core/Src/USER/user.c **** 				if (txtp >30) {txtp=0;}
 5048              		.loc 5 202 14 is_stmt 0 view .LVU1217
 5049 0034 04F12003 		add	r3, r4, #32
 5050 0038 6B44     		add	r3, sp, r3
 5051 003a 0022     		movs	r2, #0
 5052 003c 03F8202C 		strb	r2, [r3, #-32]
 203:Core/Src/USER/user.c **** 			}
 5053              		.loc 5 203 5 is_stmt 1 view .LVU1218
 203:Core/Src/USER/user.c **** 			}
 5054              		.loc 5 203 8 is_stmt 0 view .LVU1219
 5055 0040 1E2C     		cmp	r4, #30
 5056 0042 E3D9     		bls	.L326
 203:Core/Src/USER/user.c **** 			}
 5057              		.loc 5 203 24 view .LVU1220
 5058 0044 0024     		movs	r4, #0
 5059              	.LVL417:
 203:Core/Src/USER/user.c **** 			}
 5060              		.loc 5 203 24 view .LVU1221
 5061 0046 E1E7     		b	.L326
 5062              	.LVL418:
 5063              	.L327:
 205:Core/Src/USER/user.c **** 			{
 5064              		.loc 5 205 9 is_stmt 1 view .LVU1222
 205:Core/Src/USER/user.c **** 			{
 5065              		.loc 5 205 12 is_stmt 0 view .LVU1223
 5066 0048 1F28     		cmp	r0, #31
 5067 004a DFD8     		bhi	.L326
ARM GAS  C:\Users\User\AppData\Local\Temp\ccEEhKx4.s 			page 129


 207:Core/Src/USER/user.c **** 				txt[0]=0;
 5068              		.loc 5 207 5 is_stmt 1 view .LVU1224
 207:Core/Src/USER/user.c **** 				txt[0]=0;
 5069              		.loc 5 207 8 is_stmt 0 view .LVU1225
 5070 004c 022C     		cmp	r4, #2
 5071 004e 03D8     		bhi	.L334
 5072              	.LVL419:
 5073              	.L329:
 208:Core/Src/USER/user.c **** 				txtp=0;
 5074              		.loc 5 208 5 is_stmt 1 view .LVU1226
 208:Core/Src/USER/user.c **** 				txtp=0;
 5075              		.loc 5 208 11 is_stmt 0 view .LVU1227
 5076 0050 0024     		movs	r4, #0
 5077              	.LVL420:
 208:Core/Src/USER/user.c **** 				txtp=0;
 5078              		.loc 5 208 11 view .LVU1228
 5079 0052 8DF80040 		strb	r4, [sp]
 209:Core/Src/USER/user.c **** 			}
 5080              		.loc 5 209 5 is_stmt 1 view .LVU1229
 5081              	.LVL421:
 209:Core/Src/USER/user.c **** 			}
 5082              		.loc 5 209 5 is_stmt 0 view .LVU1230
 5083 0056 D9E7     		b	.L326
 5084              	.LVL422:
 5085              	.L334:
 207:Core/Src/USER/user.c **** 				txt[0]=0;
 5086              		.loc 5 207 16 is_stmt 1 discriminator 1 view .LVU1231
 5087 0058 6846     		mov	r0, sp
 5088              	.LVL423:
 207:Core/Src/USER/user.c **** 				txt[0]=0;
 5089              		.loc 5 207 16 is_stmt 0 discriminator 1 view .LVU1232
 5090 005a FFF7FEFF 		bl	commandcom
 5091              	.LVL424:
 5092 005e F7E7     		b	.L329
 5093              	.L336:
 5094              		.align	2
 5095              	.L335:
 5096 0060 00000000 		.word	.LANCHOR10
 5097 0064 00000000 		.word	.LANCHOR8
 5098              		.cfi_endproc
 5099              	.LFE121:
 5101              		.section	.text.MX_RTC_Init,"ax",%progbits
 5102              		.align	1
 5103              		.syntax unified
 5104              		.thumb
 5105              		.thumb_func
 5107              	MX_RTC_Init:
 5108              	.LFB130:
 242:Core/Src/main.c **** 
 5109              		.loc 2 242 1 is_stmt 1 view -0
 5110              		.cfi_startproc
 5111              		@ args = 0, pretend = 0, frame = 16
 5112              		@ frame_needed = 0, uses_anonymous_args = 0
 5113 0000 00B5     		push	{lr}
 5114              	.LCFI93:
 5115              		.cfi_def_cfa_offset 4
 5116              		.cfi_offset 14, -4
ARM GAS  C:\Users\User\AppData\Local\Temp\ccEEhKx4.s 			page 130


 5117 0002 85B0     		sub	sp, sp, #20
 5118              	.LCFI94:
 5119              		.cfi_def_cfa_offset 24
 248:Core/Src/main.c ****   RTC_DateTypeDef DateToUpdate = {0};
 5120              		.loc 2 248 3 view .LVU1234
 248:Core/Src/main.c ****   RTC_DateTypeDef DateToUpdate = {0};
 5121              		.loc 2 248 19 is_stmt 0 view .LVU1235
 5122 0004 0023     		movs	r3, #0
 5123 0006 ADF80C30 		strh	r3, [sp, #12]	@ movhi
 5124 000a 8DF80E30 		strb	r3, [sp, #14]
 249:Core/Src/main.c **** 
 5125              		.loc 2 249 3 is_stmt 1 view .LVU1236
 249:Core/Src/main.c **** 
 5126              		.loc 2 249 19 is_stmt 0 view .LVU1237
 5127 000e 0293     		str	r3, [sp, #8]
 252:Core/Src/main.c ****   hrtc.Init.AsynchPrediv = RTC_AUTO_1_SECOND;
 5128              		.loc 2 252 3 is_stmt 1 view .LVU1238
 252:Core/Src/main.c ****   hrtc.Init.AsynchPrediv = RTC_AUTO_1_SECOND;
 5129              		.loc 2 252 17 is_stmt 0 view .LVU1239
 5130 0010 2E4B     		ldr	r3, .L345
 5131 0012 2F4A     		ldr	r2, .L345+4
 5132 0014 1A60     		str	r2, [r3]
 253:Core/Src/main.c ****   hrtc.Init.OutPut = RTC_OUTPUTSOURCE_ALARM;
 5133              		.loc 2 253 3 is_stmt 1 view .LVU1240
 253:Core/Src/main.c ****   hrtc.Init.OutPut = RTC_OUTPUTSOURCE_ALARM;
 5134              		.loc 2 253 26 is_stmt 0 view .LVU1241
 5135 0016 4FF0FF32 		mov	r2, #-1
 5136 001a 5A60     		str	r2, [r3, #4]
 254:Core/Src/main.c ****   if ((RCC->BDCR & RCC_BDCR_RTCEN) == 0) {
 5137              		.loc 2 254 3 is_stmt 1 view .LVU1242
 254:Core/Src/main.c ****   if ((RCC->BDCR & RCC_BDCR_RTCEN) == 0) {
 5138              		.loc 2 254 20 is_stmt 0 view .LVU1243
 5139 001c 4FF48072 		mov	r2, #256
 5140 0020 9A60     		str	r2, [r3, #8]
 255:Core/Src/main.c ****   /* USER CODE END RTC_Init 1 */
 5141              		.loc 2 255 3 is_stmt 1 view .LVU1244
 255:Core/Src/main.c ****   /* USER CODE END RTC_Init 1 */
 5142              		.loc 2 255 11 is_stmt 0 view .LVU1245
 5143 0022 2C4B     		ldr	r3, .L345+8
 5144 0024 1B6A     		ldr	r3, [r3, #32]
 255:Core/Src/main.c ****   /* USER CODE END RTC_Init 1 */
 5145              		.loc 2 255 6 view .LVU1246
 5146 0026 13F4004F 		tst	r3, #32768
 5147 002a 07D1     		bne	.L338
 260:Core/Src/main.c ****   hrtc.Init.AsynchPrediv = RTC_AUTO_1_SECOND;
 5148              		.loc 2 260 3 is_stmt 1 view .LVU1247
 261:Core/Src/main.c ****   hrtc.Init.OutPut = RTC_OUTPUTSOURCE_NONE;
 5149              		.loc 2 261 3 view .LVU1248
 262:Core/Src/main.c ****   if (HAL_RTC_Init(&hrtc) != HAL_OK)
 5150              		.loc 2 262 3 view .LVU1249
 262:Core/Src/main.c ****   if (HAL_RTC_Init(&hrtc) != HAL_OK)
 5151              		.loc 2 262 20 is_stmt 0 view .LVU1250
 5152 002c 2748     		ldr	r0, .L345
 5153 002e 0023     		movs	r3, #0
 5154 0030 8360     		str	r3, [r0, #8]
 263:Core/Src/main.c ****   {
 5155              		.loc 2 263 3 is_stmt 1 view .LVU1251
ARM GAS  C:\Users\User\AppData\Local\Temp\ccEEhKx4.s 			page 131


 263:Core/Src/main.c ****   {
 5156              		.loc 2 263 7 is_stmt 0 view .LVU1252
 5157 0032 FFF7FEFF 		bl	HAL_RTC_Init
 5158              	.LVL425:
 263:Core/Src/main.c ****   {
 5159              		.loc 2 263 6 view .LVU1253
 5160 0036 A8B1     		cbz	r0, .L339
 265:Core/Src/main.c ****   }
 5161              		.loc 2 265 5 is_stmt 1 view .LVU1254
 5162 0038 FFF7FEFF 		bl	Error_Handler
 5163              	.LVL426:
 5164              	.L338:
 271:Core/Src/main.c **** 	  HAL_NVIC_EnableIRQ(RTC_IRQn);
 5165              		.loc 2 271 4 view .LVU1255
 5166 003c 0022     		movs	r2, #0
 5167 003e 0F21     		movs	r1, #15
 5168 0040 0320     		movs	r0, #3
 5169 0042 FFF7FEFF 		bl	HAL_NVIC_SetPriority
 5170              	.LVL427:
 272:Core/Src/main.c **** 	  HAL_PWR_EnableBkUpAccess(); //del backup ijungimo?!
 5171              		.loc 2 272 4 view .LVU1256
 5172 0046 0320     		movs	r0, #3
 5173 0048 FFF7FEFF 		bl	HAL_NVIC_EnableIRQ
 5174              	.LVL428:
 273:Core/Src/main.c **** 	  __HAL_RCC_BKP_CLK_ENABLE(); //del backup ijungimo?!
 5175              		.loc 2 273 4 view .LVU1257
 5176 004c FFF7FEFF 		bl	HAL_PWR_EnableBkUpAccess
 5177              	.LVL429:
 274:Core/Src/main.c **** 	}
 5178              		.loc 2 274 4 view .LVU1258
 5179              	.LBB57:
 274:Core/Src/main.c **** 	}
 5180              		.loc 2 274 4 view .LVU1259
 274:Core/Src/main.c **** 	}
 5181              		.loc 2 274 4 view .LVU1260
 5182 0050 204B     		ldr	r3, .L345+8
 5183 0052 DA69     		ldr	r2, [r3, #28]
 5184 0054 42F00062 		orr	r2, r2, #134217728
 5185 0058 DA61     		str	r2, [r3, #28]
 274:Core/Src/main.c **** 	}
 5186              		.loc 2 274 4 view .LVU1261
 5187 005a DB69     		ldr	r3, [r3, #28]
 5188 005c 03F00063 		and	r3, r3, #134217728
 5189 0060 0193     		str	r3, [sp, #4]
 274:Core/Src/main.c **** 	}
 5190              		.loc 2 274 4 view .LVU1262
 5191 0062 019B     		ldr	r3, [sp, #4]
 5192              	.L339:
 5193              	.LBE57:
 274:Core/Src/main.c **** 	}
 5194              		.loc 2 274 4 discriminator 1 view .LVU1263
 276:Core/Src/main.c **** 	{
 5195              		.loc 2 276 2 discriminator 1 view .LVU1264
 276:Core/Src/main.c **** 	{
 5196              		.loc 2 276 5 is_stmt 0 discriminator 1 view .LVU1265
 5197 0064 0121     		movs	r1, #1
 5198 0066 1948     		ldr	r0, .L345
ARM GAS  C:\Users\User\AppData\Local\Temp\ccEEhKx4.s 			page 132


 5199 0068 FFF7FEFF 		bl	HAL_RTCEx_BKUPRead
 5200              	.LVL430:
 276:Core/Src/main.c **** 	{
 5201              		.loc 2 276 4 discriminator 1 view .LVU1266
 5202 006c 45F25103 		movw	r3, #20561
 5203 0070 9842     		cmp	r0, r3
 5204 0072 1DD0     		beq	.L340
 282:Core/Src/main.c ****   sTime.Minutes = 0;
 5205              		.loc 2 282 3 is_stmt 1 view .LVU1267
 282:Core/Src/main.c ****   sTime.Minutes = 0;
 5206              		.loc 2 282 15 is_stmt 0 view .LVU1268
 5207 0074 0C23     		movs	r3, #12
 5208 0076 8DF80C30 		strb	r3, [sp, #12]
 283:Core/Src/main.c ****   sTime.Seconds = 0;
 5209              		.loc 2 283 3 is_stmt 1 view .LVU1269
 283:Core/Src/main.c ****   sTime.Seconds = 0;
 5210              		.loc 2 283 17 is_stmt 0 view .LVU1270
 5211 007a 0022     		movs	r2, #0
 5212 007c 8DF80D20 		strb	r2, [sp, #13]
 284:Core/Src/main.c **** 
 5213              		.loc 2 284 3 is_stmt 1 view .LVU1271
 284:Core/Src/main.c **** 
 5214              		.loc 2 284 17 is_stmt 0 view .LVU1272
 5215 0080 8DF80E20 		strb	r2, [sp, #14]
 286:Core/Src/main.c ****   {
 5216              		.loc 2 286 3 is_stmt 1 view .LVU1273
 286:Core/Src/main.c ****   {
 5217              		.loc 2 286 7 is_stmt 0 view .LVU1274
 5218 0084 0DEB0301 		add	r1, sp, r3
 5219 0088 1048     		ldr	r0, .L345
 5220 008a FFF7FEFF 		bl	HAL_RTC_SetTime
 5221              	.LVL431:
 286:Core/Src/main.c ****   {
 5222              		.loc 2 286 6 view .LVU1275
 5223 008e C0B9     		cbnz	r0, .L343
 290:Core/Src/main.c ****   DateToUpdate.Month = RTC_MONTH_JANUARY;
 5224              		.loc 2 290 3 is_stmt 1 view .LVU1276
 290:Core/Src/main.c ****   DateToUpdate.Month = RTC_MONTH_JANUARY;
 5225              		.loc 2 290 24 is_stmt 0 view .LVU1277
 5226 0090 0123     		movs	r3, #1
 5227 0092 8DF80830 		strb	r3, [sp, #8]
 291:Core/Src/main.c ****   DateToUpdate.Date = 1;
 5228              		.loc 2 291 3 is_stmt 1 view .LVU1278
 291:Core/Src/main.c ****   DateToUpdate.Date = 1;
 5229              		.loc 2 291 22 is_stmt 0 view .LVU1279
 5230 0096 8DF80930 		strb	r3, [sp, #9]
 292:Core/Src/main.c ****   DateToUpdate.Year = 23;
 5231              		.loc 2 292 3 is_stmt 1 view .LVU1280
 292:Core/Src/main.c ****   DateToUpdate.Year = 23;
 5232              		.loc 2 292 21 is_stmt 0 view .LVU1281
 5233 009a 8DF80A30 		strb	r3, [sp, #10]
 293:Core/Src/main.c **** 
 5234              		.loc 2 293 3 is_stmt 1 view .LVU1282
 293:Core/Src/main.c **** 
 5235              		.loc 2 293 21 is_stmt 0 view .LVU1283
 5236 009e 1723     		movs	r3, #23
 5237 00a0 8DF80B30 		strb	r3, [sp, #11]
ARM GAS  C:\Users\User\AppData\Local\Temp\ccEEhKx4.s 			page 133


 295:Core/Src/main.c ****   {
 5238              		.loc 2 295 3 is_stmt 1 view .LVU1284
 295:Core/Src/main.c ****   {
 5239              		.loc 2 295 7 is_stmt 0 view .LVU1285
 5240 00a4 0022     		movs	r2, #0
 5241 00a6 02A9     		add	r1, sp, #8
 5242 00a8 0848     		ldr	r0, .L345
 5243 00aa FFF7FEFF 		bl	HAL_RTC_SetDate
 5244              	.LVL432:
 295:Core/Src/main.c ****   {
 5245              		.loc 2 295 6 view .LVU1286
 5246 00ae 50B9     		cbnz	r0, .L344
 5247              	.L340:
 321:Core/Src/main.c **** 
 5248              		.loc 2 321 2 is_stmt 1 view .LVU1287
 5249 00b0 45F25102 		movw	r2, #20561
 5250 00b4 0121     		movs	r1, #1
 5251 00b6 0548     		ldr	r0, .L345
 5252 00b8 FFF7FEFF 		bl	HAL_RTCEx_BKUPWrite
 5253              	.LVL433:
 326:Core/Src/main.c **** 
 5254              		.loc 2 326 1 is_stmt 0 view .LVU1288
 5255 00bc 05B0     		add	sp, sp, #20
 5256              	.LCFI95:
 5257              		.cfi_remember_state
 5258              		.cfi_def_cfa_offset 4
 5259              		@ sp needed
 5260 00be 5DF804FB 		ldr	pc, [sp], #4
 5261              	.L343:
 5262              	.LCFI96:
 5263              		.cfi_restore_state
 288:Core/Src/main.c ****   }
 5264              		.loc 2 288 5 is_stmt 1 view .LVU1289
 5265 00c2 FFF7FEFF 		bl	Error_Handler
 5266              	.LVL434:
 5267              	.L344:
 297:Core/Src/main.c ****   }
 5268              		.loc 2 297 5 view .LVU1290
 5269 00c6 FFF7FEFF 		bl	Error_Handler
 5270              	.LVL435:
 5271              	.L346:
 5272 00ca 00BF     		.align	2
 5273              	.L345:
 5274 00cc 00000000 		.word	.LANCHOR3
 5275 00d0 00280040 		.word	1073752064
 5276 00d4 00100240 		.word	1073876992
 5277              		.cfi_endproc
 5278              	.LFE130:
 5280              		.section	.text.MX_TIM1_Init,"ax",%progbits
 5281              		.align	1
 5282              		.syntax unified
 5283              		.thumb
 5284              		.thumb_func
 5286              	MX_TIM1_Init:
 5287              	.LFB131:
 334:Core/Src/main.c **** 
 5288              		.loc 2 334 1 view -0
ARM GAS  C:\Users\User\AppData\Local\Temp\ccEEhKx4.s 			page 134


 5289              		.cfi_startproc
 5290              		@ args = 0, pretend = 0, frame = 88
 5291              		@ frame_needed = 0, uses_anonymous_args = 0
 5292 0000 10B5     		push	{r4, lr}
 5293              	.LCFI97:
 5294              		.cfi_def_cfa_offset 8
 5295              		.cfi_offset 4, -8
 5296              		.cfi_offset 14, -4
 5297 0002 96B0     		sub	sp, sp, #88
 5298              	.LCFI98:
 5299              		.cfi_def_cfa_offset 96
 340:Core/Src/main.c ****   TIM_MasterConfigTypeDef sMasterConfig = {0};
 5300              		.loc 2 340 3 view .LVU1292
 340:Core/Src/main.c ****   TIM_MasterConfigTypeDef sMasterConfig = {0};
 5301              		.loc 2 340 26 is_stmt 0 view .LVU1293
 5302 0004 0024     		movs	r4, #0
 5303 0006 1294     		str	r4, [sp, #72]
 5304 0008 1394     		str	r4, [sp, #76]
 5305 000a 1494     		str	r4, [sp, #80]
 5306 000c 1594     		str	r4, [sp, #84]
 341:Core/Src/main.c ****   TIM_OC_InitTypeDef sConfigOC = {0};
 5307              		.loc 2 341 3 is_stmt 1 view .LVU1294
 341:Core/Src/main.c ****   TIM_OC_InitTypeDef sConfigOC = {0};
 5308              		.loc 2 341 27 is_stmt 0 view .LVU1295
 5309 000e 1094     		str	r4, [sp, #64]
 5310 0010 1194     		str	r4, [sp, #68]
 342:Core/Src/main.c ****   TIM_BreakDeadTimeConfigTypeDef sBreakDeadTimeConfig = {0};
 5311              		.loc 2 342 3 is_stmt 1 view .LVU1296
 342:Core/Src/main.c ****   TIM_BreakDeadTimeConfigTypeDef sBreakDeadTimeConfig = {0};
 5312              		.loc 2 342 22 is_stmt 0 view .LVU1297
 5313 0012 0994     		str	r4, [sp, #36]
 5314 0014 0A94     		str	r4, [sp, #40]
 5315 0016 0B94     		str	r4, [sp, #44]
 5316 0018 0C94     		str	r4, [sp, #48]
 5317 001a 0D94     		str	r4, [sp, #52]
 5318 001c 0E94     		str	r4, [sp, #56]
 5319 001e 0F94     		str	r4, [sp, #60]
 343:Core/Src/main.c **** 
 5320              		.loc 2 343 3 is_stmt 1 view .LVU1298
 343:Core/Src/main.c **** 
 5321              		.loc 2 343 34 is_stmt 0 view .LVU1299
 5322 0020 2022     		movs	r2, #32
 5323 0022 2146     		mov	r1, r4
 5324 0024 01A8     		add	r0, sp, #4
 5325 0026 FFF7FEFF 		bl	memset
 5326              	.LVL436:
 348:Core/Src/main.c ****   htim1.Init.Prescaler = 0;
 5327              		.loc 2 348 3 is_stmt 1 view .LVU1300
 348:Core/Src/main.c ****   htim1.Init.Prescaler = 0;
 5328              		.loc 2 348 18 is_stmt 0 view .LVU1301
 5329 002a 2B48     		ldr	r0, .L361
 5330 002c 2B4B     		ldr	r3, .L361+4
 5331 002e 0360     		str	r3, [r0]
 349:Core/Src/main.c ****   htim1.Init.CounterMode = TIM_COUNTERMODE_UP;
 5332              		.loc 2 349 3 is_stmt 1 view .LVU1302
 349:Core/Src/main.c ****   htim1.Init.CounterMode = TIM_COUNTERMODE_UP;
 5333              		.loc 2 349 24 is_stmt 0 view .LVU1303
ARM GAS  C:\Users\User\AppData\Local\Temp\ccEEhKx4.s 			page 135


 5334 0030 4460     		str	r4, [r0, #4]
 350:Core/Src/main.c ****   htim1.Init.Period = 65535;
 5335              		.loc 2 350 3 is_stmt 1 view .LVU1304
 350:Core/Src/main.c ****   htim1.Init.Period = 65535;
 5336              		.loc 2 350 26 is_stmt 0 view .LVU1305
 5337 0032 8460     		str	r4, [r0, #8]
 351:Core/Src/main.c ****   htim1.Init.ClockDivision = TIM_CLOCKDIVISION_DIV1;
 5338              		.loc 2 351 3 is_stmt 1 view .LVU1306
 351:Core/Src/main.c ****   htim1.Init.ClockDivision = TIM_CLOCKDIVISION_DIV1;
 5339              		.loc 2 351 21 is_stmt 0 view .LVU1307
 5340 0034 4FF6FF73 		movw	r3, #65535
 5341 0038 C360     		str	r3, [r0, #12]
 352:Core/Src/main.c ****   htim1.Init.RepetitionCounter = 0;
 5342              		.loc 2 352 3 is_stmt 1 view .LVU1308
 352:Core/Src/main.c ****   htim1.Init.RepetitionCounter = 0;
 5343              		.loc 2 352 28 is_stmt 0 view .LVU1309
 5344 003a 0461     		str	r4, [r0, #16]
 353:Core/Src/main.c ****   htim1.Init.AutoReloadPreload = TIM_AUTORELOAD_PRELOAD_ENABLE;
 5345              		.loc 2 353 3 is_stmt 1 view .LVU1310
 353:Core/Src/main.c ****   htim1.Init.AutoReloadPreload = TIM_AUTORELOAD_PRELOAD_ENABLE;
 5346              		.loc 2 353 32 is_stmt 0 view .LVU1311
 5347 003c 4461     		str	r4, [r0, #20]
 354:Core/Src/main.c ****   if (HAL_TIM_Base_Init(&htim1) != HAL_OK)
 5348              		.loc 2 354 3 is_stmt 1 view .LVU1312
 354:Core/Src/main.c ****   if (HAL_TIM_Base_Init(&htim1) != HAL_OK)
 5349              		.loc 2 354 32 is_stmt 0 view .LVU1313
 5350 003e 8023     		movs	r3, #128
 5351 0040 8361     		str	r3, [r0, #24]
 355:Core/Src/main.c ****   {
 5352              		.loc 2 355 3 is_stmt 1 view .LVU1314
 355:Core/Src/main.c ****   {
 5353              		.loc 2 355 7 is_stmt 0 view .LVU1315
 5354 0042 FFF7FEFF 		bl	HAL_TIM_Base_Init
 5355              	.LVL437:
 355:Core/Src/main.c ****   {
 5356              		.loc 2 355 6 view .LVU1316
 5357 0046 0028     		cmp	r0, #0
 5358 0048 39D1     		bne	.L355
 359:Core/Src/main.c ****   if (HAL_TIM_ConfigClockSource(&htim1, &sClockSourceConfig) != HAL_OK)
 5359              		.loc 2 359 3 is_stmt 1 view .LVU1317
 359:Core/Src/main.c ****   if (HAL_TIM_ConfigClockSource(&htim1, &sClockSourceConfig) != HAL_OK)
 5360              		.loc 2 359 34 is_stmt 0 view .LVU1318
 5361 004a 4FF48053 		mov	r3, #4096
 5362 004e 1293     		str	r3, [sp, #72]
 360:Core/Src/main.c ****   {
 5363              		.loc 2 360 3 is_stmt 1 view .LVU1319
 360:Core/Src/main.c ****   {
 5364              		.loc 2 360 7 is_stmt 0 view .LVU1320
 5365 0050 12A9     		add	r1, sp, #72
 5366 0052 2148     		ldr	r0, .L361
 5367 0054 FFF7FEFF 		bl	HAL_TIM_ConfigClockSource
 5368              	.LVL438:
 360:Core/Src/main.c ****   {
 5369              		.loc 2 360 6 view .LVU1321
 5370 0058 0028     		cmp	r0, #0
 5371 005a 32D1     		bne	.L356
 364:Core/Src/main.c ****   {
ARM GAS  C:\Users\User\AppData\Local\Temp\ccEEhKx4.s 			page 136


 5372              		.loc 2 364 3 is_stmt 1 view .LVU1322
 364:Core/Src/main.c ****   {
 5373              		.loc 2 364 7 is_stmt 0 view .LVU1323
 5374 005c 1E48     		ldr	r0, .L361
 5375 005e FFF7FEFF 		bl	HAL_TIM_PWM_Init
 5376              	.LVL439:
 364:Core/Src/main.c ****   {
 5377              		.loc 2 364 6 view .LVU1324
 5378 0062 0028     		cmp	r0, #0
 5379 0064 2FD1     		bne	.L357
 368:Core/Src/main.c ****   sMasterConfig.MasterSlaveMode = TIM_MASTERSLAVEMODE_DISABLE;
 5380              		.loc 2 368 3 is_stmt 1 view .LVU1325
 368:Core/Src/main.c ****   sMasterConfig.MasterSlaveMode = TIM_MASTERSLAVEMODE_DISABLE;
 5381              		.loc 2 368 37 is_stmt 0 view .LVU1326
 5382 0066 0023     		movs	r3, #0
 5383 0068 1093     		str	r3, [sp, #64]
 369:Core/Src/main.c ****   if (HAL_TIMEx_MasterConfigSynchronization(&htim1, &sMasterConfig) != HAL_OK)
 5384              		.loc 2 369 3 is_stmt 1 view .LVU1327
 369:Core/Src/main.c ****   if (HAL_TIMEx_MasterConfigSynchronization(&htim1, &sMasterConfig) != HAL_OK)
 5385              		.loc 2 369 33 is_stmt 0 view .LVU1328
 5386 006a 1193     		str	r3, [sp, #68]
 370:Core/Src/main.c ****   {
 5387              		.loc 2 370 3 is_stmt 1 view .LVU1329
 370:Core/Src/main.c ****   {
 5388              		.loc 2 370 7 is_stmt 0 view .LVU1330
 5389 006c 10A9     		add	r1, sp, #64
 5390 006e 1A48     		ldr	r0, .L361
 5391 0070 FFF7FEFF 		bl	HAL_TIMEx_MasterConfigSynchronization
 5392              	.LVL440:
 370:Core/Src/main.c ****   {
 5393              		.loc 2 370 6 view .LVU1331
 5394 0074 48BB     		cbnz	r0, .L358
 374:Core/Src/main.c ****   sConfigOC.Pulse = 15000;
 5395              		.loc 2 374 3 is_stmt 1 view .LVU1332
 374:Core/Src/main.c ****   sConfigOC.Pulse = 15000;
 5396              		.loc 2 374 20 is_stmt 0 view .LVU1333
 5397 0076 6023     		movs	r3, #96
 5398 0078 0993     		str	r3, [sp, #36]
 375:Core/Src/main.c ****   sConfigOC.OCPolarity = TIM_OCPOLARITY_HIGH;
 5399              		.loc 2 375 3 is_stmt 1 view .LVU1334
 375:Core/Src/main.c ****   sConfigOC.OCPolarity = TIM_OCPOLARITY_HIGH;
 5400              		.loc 2 375 19 is_stmt 0 view .LVU1335
 5401 007a 43F69823 		movw	r3, #15000
 5402 007e 0A93     		str	r3, [sp, #40]
 376:Core/Src/main.c ****   sConfigOC.OCNPolarity = TIM_OCNPOLARITY_HIGH;
 5403              		.loc 2 376 3 is_stmt 1 view .LVU1336
 376:Core/Src/main.c ****   sConfigOC.OCNPolarity = TIM_OCNPOLARITY_HIGH;
 5404              		.loc 2 376 24 is_stmt 0 view .LVU1337
 5405 0080 0022     		movs	r2, #0
 5406 0082 0B92     		str	r2, [sp, #44]
 377:Core/Src/main.c ****   sConfigOC.OCFastMode = TIM_OCFAST_DISABLE;
 5407              		.loc 2 377 3 is_stmt 1 view .LVU1338
 377:Core/Src/main.c ****   sConfigOC.OCFastMode = TIM_OCFAST_DISABLE;
 5408              		.loc 2 377 25 is_stmt 0 view .LVU1339
 5409 0084 0C92     		str	r2, [sp, #48]
 378:Core/Src/main.c ****   sConfigOC.OCIdleState = TIM_OCIDLESTATE_RESET;
 5410              		.loc 2 378 3 is_stmt 1 view .LVU1340
ARM GAS  C:\Users\User\AppData\Local\Temp\ccEEhKx4.s 			page 137


 378:Core/Src/main.c ****   sConfigOC.OCIdleState = TIM_OCIDLESTATE_RESET;
 5411              		.loc 2 378 24 is_stmt 0 view .LVU1341
 5412 0086 0D92     		str	r2, [sp, #52]
 379:Core/Src/main.c ****   sConfigOC.OCNIdleState = TIM_OCNIDLESTATE_RESET;
 5413              		.loc 2 379 3 is_stmt 1 view .LVU1342
 379:Core/Src/main.c ****   sConfigOC.OCNIdleState = TIM_OCNIDLESTATE_RESET;
 5414              		.loc 2 379 25 is_stmt 0 view .LVU1343
 5415 0088 0E92     		str	r2, [sp, #56]
 380:Core/Src/main.c ****   if (HAL_TIM_PWM_ConfigChannel(&htim1, &sConfigOC, TIM_CHANNEL_1) != HAL_OK)
 5416              		.loc 2 380 3 is_stmt 1 view .LVU1344
 380:Core/Src/main.c ****   if (HAL_TIM_PWM_ConfigChannel(&htim1, &sConfigOC, TIM_CHANNEL_1) != HAL_OK)
 5417              		.loc 2 380 26 is_stmt 0 view .LVU1345
 5418 008a 0F92     		str	r2, [sp, #60]
 381:Core/Src/main.c ****   {
 5419              		.loc 2 381 3 is_stmt 1 view .LVU1346
 381:Core/Src/main.c ****   {
 5420              		.loc 2 381 7 is_stmt 0 view .LVU1347
 5421 008c 09A9     		add	r1, sp, #36
 5422 008e 1248     		ldr	r0, .L361
 5423 0090 FFF7FEFF 		bl	HAL_TIM_PWM_ConfigChannel
 5424              	.LVL441:
 381:Core/Src/main.c ****   {
 5425              		.loc 2 381 6 view .LVU1348
 5426 0094 D8B9     		cbnz	r0, .L359
 385:Core/Src/main.c ****   sBreakDeadTimeConfig.OffStateIDLEMode = TIM_OSSI_DISABLE;
 5427              		.loc 2 385 3 is_stmt 1 view .LVU1349
 385:Core/Src/main.c ****   sBreakDeadTimeConfig.OffStateIDLEMode = TIM_OSSI_DISABLE;
 5428              		.loc 2 385 40 is_stmt 0 view .LVU1350
 5429 0096 0023     		movs	r3, #0
 5430 0098 0193     		str	r3, [sp, #4]
 386:Core/Src/main.c ****   sBreakDeadTimeConfig.LockLevel = TIM_LOCKLEVEL_OFF;
 5431              		.loc 2 386 3 is_stmt 1 view .LVU1351
 386:Core/Src/main.c ****   sBreakDeadTimeConfig.LockLevel = TIM_LOCKLEVEL_OFF;
 5432              		.loc 2 386 41 is_stmt 0 view .LVU1352
 5433 009a 0293     		str	r3, [sp, #8]
 387:Core/Src/main.c ****   sBreakDeadTimeConfig.DeadTime = 0;
 5434              		.loc 2 387 3 is_stmt 1 view .LVU1353
 387:Core/Src/main.c ****   sBreakDeadTimeConfig.DeadTime = 0;
 5435              		.loc 2 387 34 is_stmt 0 view .LVU1354
 5436 009c 0393     		str	r3, [sp, #12]
 388:Core/Src/main.c ****   sBreakDeadTimeConfig.BreakState = TIM_BREAK_DISABLE;
 5437              		.loc 2 388 3 is_stmt 1 view .LVU1355
 388:Core/Src/main.c ****   sBreakDeadTimeConfig.BreakState = TIM_BREAK_DISABLE;
 5438              		.loc 2 388 33 is_stmt 0 view .LVU1356
 5439 009e 0493     		str	r3, [sp, #16]
 389:Core/Src/main.c ****   sBreakDeadTimeConfig.BreakPolarity = TIM_BREAKPOLARITY_HIGH;
 5440              		.loc 2 389 3 is_stmt 1 view .LVU1357
 389:Core/Src/main.c ****   sBreakDeadTimeConfig.BreakPolarity = TIM_BREAKPOLARITY_HIGH;
 5441              		.loc 2 389 35 is_stmt 0 view .LVU1358
 5442 00a0 0593     		str	r3, [sp, #20]
 390:Core/Src/main.c ****   sBreakDeadTimeConfig.AutomaticOutput = TIM_AUTOMATICOUTPUT_DISABLE;
 5443              		.loc 2 390 3 is_stmt 1 view .LVU1359
 390:Core/Src/main.c ****   sBreakDeadTimeConfig.AutomaticOutput = TIM_AUTOMATICOUTPUT_DISABLE;
 5444              		.loc 2 390 38 is_stmt 0 view .LVU1360
 5445 00a2 4FF40052 		mov	r2, #8192
 5446 00a6 0692     		str	r2, [sp, #24]
 391:Core/Src/main.c ****   if (HAL_TIMEx_ConfigBreakDeadTime(&htim1, &sBreakDeadTimeConfig) != HAL_OK)
ARM GAS  C:\Users\User\AppData\Local\Temp\ccEEhKx4.s 			page 138


 5447              		.loc 2 391 3 is_stmt 1 view .LVU1361
 391:Core/Src/main.c ****   if (HAL_TIMEx_ConfigBreakDeadTime(&htim1, &sBreakDeadTimeConfig) != HAL_OK)
 5448              		.loc 2 391 40 is_stmt 0 view .LVU1362
 5449 00a8 0893     		str	r3, [sp, #32]
 392:Core/Src/main.c ****   {
 5450              		.loc 2 392 3 is_stmt 1 view .LVU1363
 392:Core/Src/main.c ****   {
 5451              		.loc 2 392 7 is_stmt 0 view .LVU1364
 5452 00aa 01A9     		add	r1, sp, #4
 5453 00ac 0A48     		ldr	r0, .L361
 5454 00ae FFF7FEFF 		bl	HAL_TIMEx_ConfigBreakDeadTime
 5455              	.LVL442:
 392:Core/Src/main.c ****   {
 5456              		.loc 2 392 6 view .LVU1365
 5457 00b2 70B9     		cbnz	r0, .L360
 399:Core/Src/main.c **** 
 5458              		.loc 2 399 3 is_stmt 1 view .LVU1366
 5459 00b4 0848     		ldr	r0, .L361
 5460 00b6 FFF7FEFF 		bl	HAL_TIM_MspPostInit
 5461              	.LVL443:
 401:Core/Src/main.c **** 
 5462              		.loc 2 401 1 is_stmt 0 view .LVU1367
 5463 00ba 16B0     		add	sp, sp, #88
 5464              	.LCFI99:
 5465              		.cfi_remember_state
 5466              		.cfi_def_cfa_offset 8
 5467              		@ sp needed
 5468 00bc 10BD     		pop	{r4, pc}
 5469              	.L355:
 5470              	.LCFI100:
 5471              		.cfi_restore_state
 357:Core/Src/main.c ****   }
 5472              		.loc 2 357 5 is_stmt 1 view .LVU1368
 5473 00be FFF7FEFF 		bl	Error_Handler
 5474              	.LVL444:
 5475              	.L356:
 362:Core/Src/main.c ****   }
 5476              		.loc 2 362 5 view .LVU1369
 5477 00c2 FFF7FEFF 		bl	Error_Handler
 5478              	.LVL445:
 5479              	.L357:
 366:Core/Src/main.c ****   }
 5480              		.loc 2 366 5 view .LVU1370
 5481 00c6 FFF7FEFF 		bl	Error_Handler
 5482              	.LVL446:
 5483              	.L358:
 372:Core/Src/main.c ****   }
 5484              		.loc 2 372 5 view .LVU1371
 5485 00ca FFF7FEFF 		bl	Error_Handler
 5486              	.LVL447:
 5487              	.L359:
 383:Core/Src/main.c ****   }
 5488              		.loc 2 383 5 view .LVU1372
 5489 00ce FFF7FEFF 		bl	Error_Handler
 5490              	.LVL448:
 5491              	.L360:
 394:Core/Src/main.c ****   }
ARM GAS  C:\Users\User\AppData\Local\Temp\ccEEhKx4.s 			page 139


 5492              		.loc 2 394 5 view .LVU1373
 5493 00d2 FFF7FEFF 		bl	Error_Handler
 5494              	.LVL449:
 5495              	.L362:
 5496 00d6 00BF     		.align	2
 5497              	.L361:
 5498 00d8 00000000 		.word	.LANCHOR11
 5499 00dc 002C0140 		.word	1073818624
 5500              		.cfi_endproc
 5501              	.LFE131:
 5503              		.section	.text.MX_I2C2_Init,"ax",%progbits
 5504              		.align	1
 5505              		.syntax unified
 5506              		.thumb
 5507              		.thumb_func
 5509              	MX_I2C2_Init:
 5510              	.LFB128:
 180:Core/Src/main.c **** 
 5511              		.loc 2 180 1 view -0
 5512              		.cfi_startproc
 5513              		@ args = 0, pretend = 0, frame = 0
 5514              		@ frame_needed = 0, uses_anonymous_args = 0
 5515 0000 08B5     		push	{r3, lr}
 5516              	.LCFI101:
 5517              		.cfi_def_cfa_offset 8
 5518              		.cfi_offset 3, -8
 5519              		.cfi_offset 14, -4
 189:Core/Src/main.c ****   hi2c2.Init.ClockSpeed = 400000;
 5520              		.loc 2 189 3 view .LVU1375
 189:Core/Src/main.c ****   hi2c2.Init.ClockSpeed = 400000;
 5521              		.loc 2 189 18 is_stmt 0 view .LVU1376
 5522 0002 0A48     		ldr	r0, .L367
 5523 0004 0A4B     		ldr	r3, .L367+4
 5524 0006 0360     		str	r3, [r0]
 190:Core/Src/main.c ****   hi2c2.Init.DutyCycle = I2C_DUTYCYCLE_2;
 5525              		.loc 2 190 3 is_stmt 1 view .LVU1377
 190:Core/Src/main.c ****   hi2c2.Init.DutyCycle = I2C_DUTYCYCLE_2;
 5526              		.loc 2 190 25 is_stmt 0 view .LVU1378
 5527 0008 0A4B     		ldr	r3, .L367+8
 5528 000a 4360     		str	r3, [r0, #4]
 191:Core/Src/main.c ****   hi2c2.Init.OwnAddress1 = 0;
 5529              		.loc 2 191 3 is_stmt 1 view .LVU1379
 191:Core/Src/main.c ****   hi2c2.Init.OwnAddress1 = 0;
 5530              		.loc 2 191 24 is_stmt 0 view .LVU1380
 5531 000c 0023     		movs	r3, #0
 5532 000e 8360     		str	r3, [r0, #8]
 192:Core/Src/main.c ****   hi2c2.Init.AddressingMode = I2C_ADDRESSINGMODE_7BIT;
 5533              		.loc 2 192 3 is_stmt 1 view .LVU1381
 192:Core/Src/main.c ****   hi2c2.Init.AddressingMode = I2C_ADDRESSINGMODE_7BIT;
 5534              		.loc 2 192 26 is_stmt 0 view .LVU1382
 5535 0010 C360     		str	r3, [r0, #12]
 193:Core/Src/main.c ****   hi2c2.Init.DualAddressMode = I2C_DUALADDRESS_DISABLE;
 5536              		.loc 2 193 3 is_stmt 1 view .LVU1383
 193:Core/Src/main.c ****   hi2c2.Init.DualAddressMode = I2C_DUALADDRESS_DISABLE;
 5537              		.loc 2 193 29 is_stmt 0 view .LVU1384
 5538 0012 4FF48042 		mov	r2, #16384
 5539 0016 0261     		str	r2, [r0, #16]
ARM GAS  C:\Users\User\AppData\Local\Temp\ccEEhKx4.s 			page 140


 194:Core/Src/main.c ****   hi2c2.Init.OwnAddress2 = 0;
 5540              		.loc 2 194 3 is_stmt 1 view .LVU1385
 194:Core/Src/main.c ****   hi2c2.Init.OwnAddress2 = 0;
 5541              		.loc 2 194 30 is_stmt 0 view .LVU1386
 5542 0018 4361     		str	r3, [r0, #20]
 195:Core/Src/main.c ****   hi2c2.Init.GeneralCallMode = I2C_GENERALCALL_DISABLE;
 5543              		.loc 2 195 3 is_stmt 1 view .LVU1387
 195:Core/Src/main.c ****   hi2c2.Init.GeneralCallMode = I2C_GENERALCALL_DISABLE;
 5544              		.loc 2 195 26 is_stmt 0 view .LVU1388
 5545 001a 8361     		str	r3, [r0, #24]
 196:Core/Src/main.c ****   hi2c2.Init.NoStretchMode = I2C_NOSTRETCH_DISABLE;
 5546              		.loc 2 196 3 is_stmt 1 view .LVU1389
 196:Core/Src/main.c ****   hi2c2.Init.NoStretchMode = I2C_NOSTRETCH_DISABLE;
 5547              		.loc 2 196 30 is_stmt 0 view .LVU1390
 5548 001c C361     		str	r3, [r0, #28]
 197:Core/Src/main.c ****   if (HAL_I2C_Init(&hi2c2) != HAL_OK)
 5549              		.loc 2 197 3 is_stmt 1 view .LVU1391
 197:Core/Src/main.c ****   if (HAL_I2C_Init(&hi2c2) != HAL_OK)
 5550              		.loc 2 197 28 is_stmt 0 view .LVU1392
 5551 001e 0362     		str	r3, [r0, #32]
 198:Core/Src/main.c ****   {
 5552              		.loc 2 198 3 is_stmt 1 view .LVU1393
 198:Core/Src/main.c ****   {
 5553              		.loc 2 198 7 is_stmt 0 view .LVU1394
 5554 0020 FFF7FEFF 		bl	HAL_I2C_Init
 5555              	.LVL450:
 198:Core/Src/main.c ****   {
 5556              		.loc 2 198 6 view .LVU1395
 5557 0024 00B9     		cbnz	r0, .L366
 206:Core/Src/main.c **** 
 5558              		.loc 2 206 1 view .LVU1396
 5559 0026 08BD     		pop	{r3, pc}
 5560              	.L366:
 200:Core/Src/main.c ****   }
 5561              		.loc 2 200 5 is_stmt 1 view .LVU1397
 5562 0028 FFF7FEFF 		bl	Error_Handler
 5563              	.LVL451:
 5564              	.L368:
 5565              		.align	2
 5566              	.L367:
 5567 002c 00000000 		.word	.LANCHOR0
 5568 0030 00580040 		.word	1073764352
 5569 0034 801A0600 		.word	400000
 5570              		.cfi_endproc
 5571              	.LFE128:
 5573              		.section	.text.MX_IWDG_Init,"ax",%progbits
 5574              		.align	1
 5575              		.syntax unified
 5576              		.thumb
 5577              		.thumb_func
 5579              	MX_IWDG_Init:
 5580              	.LFB129:
 214:Core/Src/main.c **** 
 5581              		.loc 2 214 1 view -0
 5582              		.cfi_startproc
 5583              		@ args = 0, pretend = 0, frame = 0
 5584              		@ frame_needed = 0, uses_anonymous_args = 0
ARM GAS  C:\Users\User\AppData\Local\Temp\ccEEhKx4.s 			page 141


 5585 0000 08B5     		push	{r3, lr}
 5586              	.LCFI102:
 5587              		.cfi_def_cfa_offset 8
 5588              		.cfi_offset 3, -8
 5589              		.cfi_offset 14, -4
 223:Core/Src/main.c ****   hiwdg.Init.Prescaler = IWDG_PRESCALER_32;
 5590              		.loc 2 223 3 view .LVU1399
 223:Core/Src/main.c ****   hiwdg.Init.Prescaler = IWDG_PRESCALER_32;
 5591              		.loc 2 223 18 is_stmt 0 view .LVU1400
 5592 0002 0748     		ldr	r0, .L373
 5593 0004 074B     		ldr	r3, .L373+4
 5594 0006 0360     		str	r3, [r0]
 224:Core/Src/main.c ****   hiwdg.Init.Reload = 3749;
 5595              		.loc 2 224 3 is_stmt 1 view .LVU1401
 224:Core/Src/main.c ****   hiwdg.Init.Reload = 3749;
 5596              		.loc 2 224 24 is_stmt 0 view .LVU1402
 5597 0008 0323     		movs	r3, #3
 5598 000a 4360     		str	r3, [r0, #4]
 225:Core/Src/main.c ****   if (HAL_IWDG_Init(&hiwdg) != HAL_OK)
 5599              		.loc 2 225 3 is_stmt 1 view .LVU1403
 225:Core/Src/main.c ****   if (HAL_IWDG_Init(&hiwdg) != HAL_OK)
 5600              		.loc 2 225 21 is_stmt 0 view .LVU1404
 5601 000c 40F6A563 		movw	r3, #3749
 5602 0010 8360     		str	r3, [r0, #8]
 226:Core/Src/main.c ****   {
 5603              		.loc 2 226 3 is_stmt 1 view .LVU1405
 226:Core/Src/main.c ****   {
 5604              		.loc 2 226 7 is_stmt 0 view .LVU1406
 5605 0012 FFF7FEFF 		bl	HAL_IWDG_Init
 5606              	.LVL452:
 226:Core/Src/main.c ****   {
 5607              		.loc 2 226 6 view .LVU1407
 5608 0016 00B9     		cbnz	r0, .L372
 234:Core/Src/main.c **** 
 5609              		.loc 2 234 1 view .LVU1408
 5610 0018 08BD     		pop	{r3, pc}
 5611              	.L372:
 228:Core/Src/main.c ****   }
 5612              		.loc 2 228 5 is_stmt 1 view .LVU1409
 5613 001a FFF7FEFF 		bl	Error_Handler
 5614              	.LVL453:
 5615              	.L374:
 5616 001e 00BF     		.align	2
 5617              	.L373:
 5618 0020 00000000 		.word	.LANCHOR10
 5619 0024 00300040 		.word	1073754112
 5620              		.cfi_endproc
 5621              	.LFE129:
 5623              		.section	.text.MX_TIM2_Init,"ax",%progbits
 5624              		.align	1
 5625              		.syntax unified
 5626              		.thumb
 5627              		.thumb_func
 5629              	MX_TIM2_Init:
 5630              	.LFB132:
 409:Core/Src/main.c **** 
 5631              		.loc 2 409 1 view -0
ARM GAS  C:\Users\User\AppData\Local\Temp\ccEEhKx4.s 			page 142


 5632              		.cfi_startproc
 5633              		@ args = 0, pretend = 0, frame = 56
 5634              		@ frame_needed = 0, uses_anonymous_args = 0
 5635 0000 00B5     		push	{lr}
 5636              	.LCFI103:
 5637              		.cfi_def_cfa_offset 4
 5638              		.cfi_offset 14, -4
 5639 0002 8FB0     		sub	sp, sp, #60
 5640              	.LCFI104:
 5641              		.cfi_def_cfa_offset 64
 415:Core/Src/main.c ****   TIM_MasterConfigTypeDef sMasterConfig = {0};
 5642              		.loc 2 415 3 view .LVU1411
 415:Core/Src/main.c ****   TIM_MasterConfigTypeDef sMasterConfig = {0};
 5643              		.loc 2 415 26 is_stmt 0 view .LVU1412
 5644 0004 0023     		movs	r3, #0
 5645 0006 0A93     		str	r3, [sp, #40]
 5646 0008 0B93     		str	r3, [sp, #44]
 5647 000a 0C93     		str	r3, [sp, #48]
 5648 000c 0D93     		str	r3, [sp, #52]
 416:Core/Src/main.c ****   TIM_OC_InitTypeDef sConfigOC = {0};
 5649              		.loc 2 416 3 is_stmt 1 view .LVU1413
 416:Core/Src/main.c ****   TIM_OC_InitTypeDef sConfigOC = {0};
 5650              		.loc 2 416 27 is_stmt 0 view .LVU1414
 5651 000e 0893     		str	r3, [sp, #32]
 5652 0010 0993     		str	r3, [sp, #36]
 417:Core/Src/main.c **** 
 5653              		.loc 2 417 3 is_stmt 1 view .LVU1415
 417:Core/Src/main.c **** 
 5654              		.loc 2 417 22 is_stmt 0 view .LVU1416
 5655 0012 0193     		str	r3, [sp, #4]
 5656 0014 0293     		str	r3, [sp, #8]
 5657 0016 0393     		str	r3, [sp, #12]
 5658 0018 0493     		str	r3, [sp, #16]
 5659 001a 0593     		str	r3, [sp, #20]
 5660 001c 0693     		str	r3, [sp, #24]
 5661 001e 0793     		str	r3, [sp, #28]
 422:Core/Src/main.c ****   htim2.Init.Prescaler = 200;
 5662              		.loc 2 422 3 is_stmt 1 view .LVU1417
 422:Core/Src/main.c ****   htim2.Init.Prescaler = 200;
 5663              		.loc 2 422 18 is_stmt 0 view .LVU1418
 5664 0020 1E48     		ldr	r0, .L387
 5665 0022 4FF08042 		mov	r2, #1073741824
 5666 0026 0260     		str	r2, [r0]
 423:Core/Src/main.c ****   htim2.Init.CounterMode = TIM_COUNTERMODE_UP;
 5667              		.loc 2 423 3 is_stmt 1 view .LVU1419
 423:Core/Src/main.c ****   htim2.Init.CounterMode = TIM_COUNTERMODE_UP;
 5668              		.loc 2 423 24 is_stmt 0 view .LVU1420
 5669 0028 C822     		movs	r2, #200
 5670 002a 4260     		str	r2, [r0, #4]
 424:Core/Src/main.c ****   htim2.Init.Period = 29800;
 5671              		.loc 2 424 3 is_stmt 1 view .LVU1421
 424:Core/Src/main.c ****   htim2.Init.Period = 29800;
 5672              		.loc 2 424 26 is_stmt 0 view .LVU1422
 5673 002c 8360     		str	r3, [r0, #8]
 425:Core/Src/main.c ****   htim2.Init.ClockDivision = TIM_CLOCKDIVISION_DIV4;
 5674              		.loc 2 425 3 is_stmt 1 view .LVU1423
 425:Core/Src/main.c ****   htim2.Init.ClockDivision = TIM_CLOCKDIVISION_DIV4;
ARM GAS  C:\Users\User\AppData\Local\Temp\ccEEhKx4.s 			page 143


 5675              		.loc 2 425 21 is_stmt 0 view .LVU1424
 5676 002e 47F26843 		movw	r3, #29800
 5677 0032 C360     		str	r3, [r0, #12]
 426:Core/Src/main.c ****   htim2.Init.AutoReloadPreload = TIM_AUTORELOAD_PRELOAD_ENABLE;
 5678              		.loc 2 426 3 is_stmt 1 view .LVU1425
 426:Core/Src/main.c ****   htim2.Init.AutoReloadPreload = TIM_AUTORELOAD_PRELOAD_ENABLE;
 5679              		.loc 2 426 28 is_stmt 0 view .LVU1426
 5680 0034 4FF40073 		mov	r3, #512
 5681 0038 0361     		str	r3, [r0, #16]
 427:Core/Src/main.c ****   if (HAL_TIM_Base_Init(&htim2) != HAL_OK)
 5682              		.loc 2 427 3 is_stmt 1 view .LVU1427
 427:Core/Src/main.c ****   if (HAL_TIM_Base_Init(&htim2) != HAL_OK)
 5683              		.loc 2 427 32 is_stmt 0 view .LVU1428
 5684 003a 8023     		movs	r3, #128
 5685 003c 8361     		str	r3, [r0, #24]
 428:Core/Src/main.c ****   {
 5686              		.loc 2 428 3 is_stmt 1 view .LVU1429
 428:Core/Src/main.c ****   {
 5687              		.loc 2 428 7 is_stmt 0 view .LVU1430
 5688 003e FFF7FEFF 		bl	HAL_TIM_Base_Init
 5689              	.LVL454:
 428:Core/Src/main.c ****   {
 5690              		.loc 2 428 6 view .LVU1431
 5691 0042 00BB     		cbnz	r0, .L382
 432:Core/Src/main.c ****   if (HAL_TIM_ConfigClockSource(&htim2, &sClockSourceConfig) != HAL_OK)
 5692              		.loc 2 432 3 is_stmt 1 view .LVU1432
 432:Core/Src/main.c ****   if (HAL_TIM_ConfigClockSource(&htim2, &sClockSourceConfig) != HAL_OK)
 5693              		.loc 2 432 34 is_stmt 0 view .LVU1433
 5694 0044 4FF48053 		mov	r3, #4096
 5695 0048 0A93     		str	r3, [sp, #40]
 433:Core/Src/main.c ****   {
 5696              		.loc 2 433 3 is_stmt 1 view .LVU1434
 433:Core/Src/main.c ****   {
 5697              		.loc 2 433 7 is_stmt 0 view .LVU1435
 5698 004a 0AA9     		add	r1, sp, #40
 5699 004c 1348     		ldr	r0, .L387
 5700 004e FFF7FEFF 		bl	HAL_TIM_ConfigClockSource
 5701              	.LVL455:
 433:Core/Src/main.c ****   {
 5702              		.loc 2 433 6 view .LVU1436
 5703 0052 D0B9     		cbnz	r0, .L383
 437:Core/Src/main.c ****   {
 5704              		.loc 2 437 3 is_stmt 1 view .LVU1437
 437:Core/Src/main.c ****   {
 5705              		.loc 2 437 7 is_stmt 0 view .LVU1438
 5706 0054 1148     		ldr	r0, .L387
 5707 0056 FFF7FEFF 		bl	HAL_TIM_OC_Init
 5708              	.LVL456:
 437:Core/Src/main.c ****   {
 5709              		.loc 2 437 6 view .LVU1439
 5710 005a C0B9     		cbnz	r0, .L384
 441:Core/Src/main.c ****   sMasterConfig.MasterSlaveMode = TIM_MASTERSLAVEMODE_DISABLE;
 5711              		.loc 2 441 3 is_stmt 1 view .LVU1440
 441:Core/Src/main.c ****   sMasterConfig.MasterSlaveMode = TIM_MASTERSLAVEMODE_DISABLE;
 5712              		.loc 2 441 37 is_stmt 0 view .LVU1441
 5713 005c 0023     		movs	r3, #0
 5714 005e 0893     		str	r3, [sp, #32]
ARM GAS  C:\Users\User\AppData\Local\Temp\ccEEhKx4.s 			page 144


 442:Core/Src/main.c ****   if (HAL_TIMEx_MasterConfigSynchronization(&htim2, &sMasterConfig) != HAL_OK)
 5715              		.loc 2 442 3 is_stmt 1 view .LVU1442
 442:Core/Src/main.c ****   if (HAL_TIMEx_MasterConfigSynchronization(&htim2, &sMasterConfig) != HAL_OK)
 5716              		.loc 2 442 33 is_stmt 0 view .LVU1443
 5717 0060 0993     		str	r3, [sp, #36]
 443:Core/Src/main.c ****   {
 5718              		.loc 2 443 3 is_stmt 1 view .LVU1444
 443:Core/Src/main.c ****   {
 5719              		.loc 2 443 7 is_stmt 0 view .LVU1445
 5720 0062 08A9     		add	r1, sp, #32
 5721 0064 0D48     		ldr	r0, .L387
 5722 0066 FFF7FEFF 		bl	HAL_TIMEx_MasterConfigSynchronization
 5723              	.LVL457:
 443:Core/Src/main.c ****   {
 5724              		.loc 2 443 6 view .LVU1446
 5725 006a 90B9     		cbnz	r0, .L385
 447:Core/Src/main.c ****   sConfigOC.Pulse = 0;
 5726              		.loc 2 447 3 is_stmt 1 view .LVU1447
 447:Core/Src/main.c ****   sConfigOC.Pulse = 0;
 5727              		.loc 2 447 20 is_stmt 0 view .LVU1448
 5728 006c 0022     		movs	r2, #0
 5729 006e 0192     		str	r2, [sp, #4]
 448:Core/Src/main.c ****   sConfigOC.OCPolarity = TIM_OCPOLARITY_HIGH;
 5730              		.loc 2 448 3 is_stmt 1 view .LVU1449
 448:Core/Src/main.c ****   sConfigOC.OCPolarity = TIM_OCPOLARITY_HIGH;
 5731              		.loc 2 448 19 is_stmt 0 view .LVU1450
 5732 0070 0292     		str	r2, [sp, #8]
 449:Core/Src/main.c ****   sConfigOC.OCFastMode = TIM_OCFAST_DISABLE;
 5733              		.loc 2 449 3 is_stmt 1 view .LVU1451
 449:Core/Src/main.c ****   sConfigOC.OCFastMode = TIM_OCFAST_DISABLE;
 5734              		.loc 2 449 24 is_stmt 0 view .LVU1452
 5735 0072 0392     		str	r2, [sp, #12]
 450:Core/Src/main.c ****   if (HAL_TIM_OC_ConfigChannel(&htim2, &sConfigOC, TIM_CHANNEL_1) != HAL_OK)
 5736              		.loc 2 450 3 is_stmt 1 view .LVU1453
 450:Core/Src/main.c ****   if (HAL_TIM_OC_ConfigChannel(&htim2, &sConfigOC, TIM_CHANNEL_1) != HAL_OK)
 5737              		.loc 2 450 24 is_stmt 0 view .LVU1454
 5738 0074 0592     		str	r2, [sp, #20]
 451:Core/Src/main.c ****   {
 5739              		.loc 2 451 3 is_stmt 1 view .LVU1455
 451:Core/Src/main.c ****   {
 5740              		.loc 2 451 7 is_stmt 0 view .LVU1456
 5741 0076 01A9     		add	r1, sp, #4
 5742 0078 0848     		ldr	r0, .L387
 5743 007a FFF7FEFF 		bl	HAL_TIM_OC_ConfigChannel
 5744              	.LVL458:
 451:Core/Src/main.c ****   {
 5745              		.loc 2 451 6 view .LVU1457
 5746 007e 50B9     		cbnz	r0, .L386
 459:Core/Src/main.c **** 
 5747              		.loc 2 459 1 view .LVU1458
 5748 0080 0FB0     		add	sp, sp, #60
 5749              	.LCFI105:
 5750              		.cfi_remember_state
 5751              		.cfi_def_cfa_offset 4
 5752              		@ sp needed
 5753 0082 5DF804FB 		ldr	pc, [sp], #4
 5754              	.L382:
ARM GAS  C:\Users\User\AppData\Local\Temp\ccEEhKx4.s 			page 145


 5755              	.LCFI106:
 5756              		.cfi_restore_state
 430:Core/Src/main.c ****   }
 5757              		.loc 2 430 5 is_stmt 1 view .LVU1459
 5758 0086 FFF7FEFF 		bl	Error_Handler
 5759              	.LVL459:
 5760              	.L383:
 435:Core/Src/main.c ****   }
 5761              		.loc 2 435 5 view .LVU1460
 5762 008a FFF7FEFF 		bl	Error_Handler
 5763              	.LVL460:
 5764              	.L384:
 439:Core/Src/main.c ****   }
 5765              		.loc 2 439 5 view .LVU1461
 5766 008e FFF7FEFF 		bl	Error_Handler
 5767              	.LVL461:
 5768              	.L385:
 445:Core/Src/main.c ****   }
 5769              		.loc 2 445 5 view .LVU1462
 5770 0092 FFF7FEFF 		bl	Error_Handler
 5771              	.LVL462:
 5772              	.L386:
 453:Core/Src/main.c ****   }
 5773              		.loc 2 453 5 view .LVU1463
 5774 0096 FFF7FEFF 		bl	Error_Handler
 5775              	.LVL463:
 5776              	.L388:
 5777 009a 00BF     		.align	2
 5778              	.L387:
 5779 009c 00000000 		.word	.LANCHOR12
 5780              		.cfi_endproc
 5781              	.LFE132:
 5783              		.section	.text.SystemClock_Config,"ax",%progbits
 5784              		.align	1
 5785              		.global	SystemClock_Config
 5786              		.syntax unified
 5787              		.thumb
 5788              		.thumb_func
 5790              	SystemClock_Config:
 5791              	.LFB127:
 129:Core/Src/main.c ****   RCC_OscInitTypeDef RCC_OscInitStruct = {0};
 5792              		.loc 2 129 1 view -0
 5793              		.cfi_startproc
 5794              		@ args = 0, pretend = 0, frame = 88
 5795              		@ frame_needed = 0, uses_anonymous_args = 0
 5796 0000 00B5     		push	{lr}
 5797              	.LCFI107:
 5798              		.cfi_def_cfa_offset 4
 5799              		.cfi_offset 14, -4
 5800 0002 97B0     		sub	sp, sp, #92
 5801              	.LCFI108:
 5802              		.cfi_def_cfa_offset 96
 130:Core/Src/main.c ****   RCC_ClkInitTypeDef RCC_ClkInitStruct = {0};
 5803              		.loc 2 130 3 view .LVU1465
 130:Core/Src/main.c ****   RCC_ClkInitTypeDef RCC_ClkInitStruct = {0};
 5804              		.loc 2 130 22 is_stmt 0 view .LVU1466
 5805 0004 2822     		movs	r2, #40
ARM GAS  C:\Users\User\AppData\Local\Temp\ccEEhKx4.s 			page 146


 5806 0006 0021     		movs	r1, #0
 5807 0008 0CA8     		add	r0, sp, #48
 5808 000a FFF7FEFF 		bl	memset
 5809              	.LVL464:
 131:Core/Src/main.c ****   RCC_PeriphCLKInitTypeDef PeriphClkInit = {0};
 5810              		.loc 2 131 3 is_stmt 1 view .LVU1467
 131:Core/Src/main.c ****   RCC_PeriphCLKInitTypeDef PeriphClkInit = {0};
 5811              		.loc 2 131 22 is_stmt 0 view .LVU1468
 5812 000e 0023     		movs	r3, #0
 5813 0010 0793     		str	r3, [sp, #28]
 5814 0012 0893     		str	r3, [sp, #32]
 5815 0014 0993     		str	r3, [sp, #36]
 5816 0016 0A93     		str	r3, [sp, #40]
 5817 0018 0B93     		str	r3, [sp, #44]
 132:Core/Src/main.c **** 
 5818              		.loc 2 132 3 is_stmt 1 view .LVU1469
 132:Core/Src/main.c **** 
 5819              		.loc 2 132 28 is_stmt 0 view .LVU1470
 5820 001a 0193     		str	r3, [sp, #4]
 5821 001c 0293     		str	r3, [sp, #8]
 5822 001e 0393     		str	r3, [sp, #12]
 5823 0020 0493     		str	r3, [sp, #16]
 5824 0022 0593     		str	r3, [sp, #20]
 5825 0024 0693     		str	r3, [sp, #24]
 137:Core/Src/main.c ****                               |RCC_OSCILLATORTYPE_LSE;
 5826              		.loc 2 137 3 is_stmt 1 view .LVU1471
 137:Core/Src/main.c ****                               |RCC_OSCILLATORTYPE_LSE;
 5827              		.loc 2 137 36 is_stmt 0 view .LVU1472
 5828 0026 0D23     		movs	r3, #13
 5829 0028 0C93     		str	r3, [sp, #48]
 139:Core/Src/main.c ****   RCC_OscInitStruct.HSEPredivValue = RCC_HSE_PREDIV_DIV1;
 5830              		.loc 2 139 3 is_stmt 1 view .LVU1473
 139:Core/Src/main.c ****   RCC_OscInitStruct.HSEPredivValue = RCC_HSE_PREDIV_DIV1;
 5831              		.loc 2 139 30 is_stmt 0 view .LVU1474
 5832 002a 4FF48032 		mov	r2, #65536
 5833 002e 0D92     		str	r2, [sp, #52]
 140:Core/Src/main.c ****   RCC_OscInitStruct.LSEState = RCC_LSE_ON;
 5834              		.loc 2 140 3 is_stmt 1 view .LVU1475
 141:Core/Src/main.c ****   RCC_OscInitStruct.HSIState = RCC_HSI_ON;
 5835              		.loc 2 141 3 view .LVU1476
 141:Core/Src/main.c ****   RCC_OscInitStruct.HSIState = RCC_HSI_ON;
 5836              		.loc 2 141 30 is_stmt 0 view .LVU1477
 5837 0030 0123     		movs	r3, #1
 5838 0032 0F93     		str	r3, [sp, #60]
 142:Core/Src/main.c ****   RCC_OscInitStruct.LSIState = RCC_LSI_ON;
 5839              		.loc 2 142 3 is_stmt 1 view .LVU1478
 142:Core/Src/main.c ****   RCC_OscInitStruct.LSIState = RCC_LSI_ON;
 5840              		.loc 2 142 30 is_stmt 0 view .LVU1479
 5841 0034 1093     		str	r3, [sp, #64]
 143:Core/Src/main.c ****   RCC_OscInitStruct.PLL.PLLState = RCC_PLL_ON;
 5842              		.loc 2 143 3 is_stmt 1 view .LVU1480
 143:Core/Src/main.c ****   RCC_OscInitStruct.PLL.PLLState = RCC_PLL_ON;
 5843              		.loc 2 143 30 is_stmt 0 view .LVU1481
 5844 0036 1293     		str	r3, [sp, #72]
 144:Core/Src/main.c ****   RCC_OscInitStruct.PLL.PLLSource = RCC_PLLSOURCE_HSE;
 5845              		.loc 2 144 3 is_stmt 1 view .LVU1482
 144:Core/Src/main.c ****   RCC_OscInitStruct.PLL.PLLSource = RCC_PLLSOURCE_HSE;
ARM GAS  C:\Users\User\AppData\Local\Temp\ccEEhKx4.s 			page 147


 5846              		.loc 2 144 34 is_stmt 0 view .LVU1483
 5847 0038 0223     		movs	r3, #2
 5848 003a 1393     		str	r3, [sp, #76]
 145:Core/Src/main.c ****   RCC_OscInitStruct.PLL.PLLMUL = RCC_PLL_MUL6;
 5849              		.loc 2 145 3 is_stmt 1 view .LVU1484
 145:Core/Src/main.c ****   RCC_OscInitStruct.PLL.PLLMUL = RCC_PLL_MUL6;
 5850              		.loc 2 145 35 is_stmt 0 view .LVU1485
 5851 003c 1492     		str	r2, [sp, #80]
 146:Core/Src/main.c ****   if (HAL_RCC_OscConfig(&RCC_OscInitStruct) != HAL_OK)
 5852              		.loc 2 146 3 is_stmt 1 view .LVU1486
 146:Core/Src/main.c ****   if (HAL_RCC_OscConfig(&RCC_OscInitStruct) != HAL_OK)
 5853              		.loc 2 146 32 is_stmt 0 view .LVU1487
 5854 003e 4FF48013 		mov	r3, #1048576
 5855 0042 1593     		str	r3, [sp, #84]
 147:Core/Src/main.c ****   {
 5856              		.loc 2 147 3 is_stmt 1 view .LVU1488
 147:Core/Src/main.c ****   {
 5857              		.loc 2 147 7 is_stmt 0 view .LVU1489
 5858 0044 0CA8     		add	r0, sp, #48
 5859 0046 FFF7FEFF 		bl	HAL_RCC_OscConfig
 5860              	.LVL465:
 147:Core/Src/main.c ****   {
 5861              		.loc 2 147 6 view .LVU1490
 5862 004a E8B9     		cbnz	r0, .L394
 154:Core/Src/main.c ****                               |RCC_CLOCKTYPE_PCLK1|RCC_CLOCKTYPE_PCLK2;
 5863              		.loc 2 154 3 is_stmt 1 view .LVU1491
 154:Core/Src/main.c ****                               |RCC_CLOCKTYPE_PCLK1|RCC_CLOCKTYPE_PCLK2;
 5864              		.loc 2 154 31 is_stmt 0 view .LVU1492
 5865 004c 0F23     		movs	r3, #15
 5866 004e 0793     		str	r3, [sp, #28]
 156:Core/Src/main.c ****   RCC_ClkInitStruct.AHBCLKDivider = RCC_SYSCLK_DIV1;
 5867              		.loc 2 156 3 is_stmt 1 view .LVU1493
 156:Core/Src/main.c ****   RCC_ClkInitStruct.AHBCLKDivider = RCC_SYSCLK_DIV1;
 5868              		.loc 2 156 34 is_stmt 0 view .LVU1494
 5869 0050 0223     		movs	r3, #2
 5870 0052 0893     		str	r3, [sp, #32]
 157:Core/Src/main.c ****   RCC_ClkInitStruct.APB1CLKDivider = RCC_HCLK_DIV2;
 5871              		.loc 2 157 3 is_stmt 1 view .LVU1495
 157:Core/Src/main.c ****   RCC_ClkInitStruct.APB1CLKDivider = RCC_HCLK_DIV2;
 5872              		.loc 2 157 35 is_stmt 0 view .LVU1496
 5873 0054 0023     		movs	r3, #0
 5874 0056 0993     		str	r3, [sp, #36]
 158:Core/Src/main.c ****   RCC_ClkInitStruct.APB2CLKDivider = RCC_HCLK_DIV1;
 5875              		.loc 2 158 3 is_stmt 1 view .LVU1497
 158:Core/Src/main.c ****   RCC_ClkInitStruct.APB2CLKDivider = RCC_HCLK_DIV1;
 5876              		.loc 2 158 36 is_stmt 0 view .LVU1498
 5877 0058 4FF48062 		mov	r2, #1024
 5878 005c 0A92     		str	r2, [sp, #40]
 159:Core/Src/main.c **** 
 5879              		.loc 2 159 3 is_stmt 1 view .LVU1499
 159:Core/Src/main.c **** 
 5880              		.loc 2 159 36 is_stmt 0 view .LVU1500
 5881 005e 0B93     		str	r3, [sp, #44]
 161:Core/Src/main.c ****   {
 5882              		.loc 2 161 3 is_stmt 1 view .LVU1501
 161:Core/Src/main.c ****   {
 5883              		.loc 2 161 7 is_stmt 0 view .LVU1502
ARM GAS  C:\Users\User\AppData\Local\Temp\ccEEhKx4.s 			page 148


 5884 0060 0121     		movs	r1, #1
 5885 0062 07A8     		add	r0, sp, #28
 5886 0064 FFF7FEFF 		bl	HAL_RCC_ClockConfig
 5887              	.LVL466:
 161:Core/Src/main.c ****   {
 5888              		.loc 2 161 6 view .LVU1503
 5889 0068 80B9     		cbnz	r0, .L395
 165:Core/Src/main.c ****   PeriphClkInit.RTCClockSelection = RCC_RTCCLKSOURCE_LSE;
 5890              		.loc 2 165 3 is_stmt 1 view .LVU1504
 165:Core/Src/main.c ****   PeriphClkInit.RTCClockSelection = RCC_RTCCLKSOURCE_LSE;
 5891              		.loc 2 165 38 is_stmt 0 view .LVU1505
 5892 006a 1123     		movs	r3, #17
 5893 006c 0193     		str	r3, [sp, #4]
 166:Core/Src/main.c ****   PeriphClkInit.UsbClockSelection = RCC_USBCLKSOURCE_PLL;
 5894              		.loc 2 166 3 is_stmt 1 view .LVU1506
 166:Core/Src/main.c ****   PeriphClkInit.UsbClockSelection = RCC_USBCLKSOURCE_PLL;
 5895              		.loc 2 166 35 is_stmt 0 view .LVU1507
 5896 006e 4FF48073 		mov	r3, #256
 5897 0072 0293     		str	r3, [sp, #8]
 167:Core/Src/main.c ****   if (HAL_RCCEx_PeriphCLKConfig(&PeriphClkInit) != HAL_OK)
 5898              		.loc 2 167 3 is_stmt 1 view .LVU1508
 167:Core/Src/main.c ****   if (HAL_RCCEx_PeriphCLKConfig(&PeriphClkInit) != HAL_OK)
 5899              		.loc 2 167 35 is_stmt 0 view .LVU1509
 5900 0074 4FF48003 		mov	r3, #4194304
 5901 0078 0693     		str	r3, [sp, #24]
 168:Core/Src/main.c ****   {
 5902              		.loc 2 168 3 is_stmt 1 view .LVU1510
 168:Core/Src/main.c ****   {
 5903              		.loc 2 168 7 is_stmt 0 view .LVU1511
 5904 007a 01A8     		add	r0, sp, #4
 5905 007c FFF7FEFF 		bl	HAL_RCCEx_PeriphCLKConfig
 5906              	.LVL467:
 168:Core/Src/main.c ****   {
 5907              		.loc 2 168 6 view .LVU1512
 5908 0080 30B9     		cbnz	r0, .L396
 172:Core/Src/main.c **** 
 5909              		.loc 2 172 1 view .LVU1513
 5910 0082 17B0     		add	sp, sp, #92
 5911              	.LCFI109:
 5912              		.cfi_remember_state
 5913              		.cfi_def_cfa_offset 4
 5914              		@ sp needed
 5915 0084 5DF804FB 		ldr	pc, [sp], #4
 5916              	.L394:
 5917              	.LCFI110:
 5918              		.cfi_restore_state
 149:Core/Src/main.c ****   }
 5919              		.loc 2 149 5 is_stmt 1 view .LVU1514
 5920 0088 FFF7FEFF 		bl	Error_Handler
 5921              	.LVL468:
 5922              	.L395:
 163:Core/Src/main.c ****   }
 5923              		.loc 2 163 5 view .LVU1515
 5924 008c FFF7FEFF 		bl	Error_Handler
 5925              	.LVL469:
 5926              	.L396:
 170:Core/Src/main.c ****   }
ARM GAS  C:\Users\User\AppData\Local\Temp\ccEEhKx4.s 			page 149


 5927              		.loc 2 170 5 view .LVU1516
 5928 0090 FFF7FEFF 		bl	Error_Handler
 5929              	.LVL470:
 5930              		.cfi_endproc
 5931              	.LFE127:
 5933              		.section	.text.main,"ax",%progbits
 5934              		.align	1
 5935              		.global	main
 5936              		.syntax unified
 5937              		.thumb
 5938              		.thumb_func
 5940              	main:
 5941              	.LFB126:
  79:Core/Src/main.c ****   /* USER CODE BEGIN 1 */
 5942              		.loc 2 79 1 view -0
 5943              		.cfi_startproc
 5944              		@ Volatile: function does not return.
 5945              		@ args = 0, pretend = 0, frame = 0
 5946              		@ frame_needed = 0, uses_anonymous_args = 0
 5947 0000 08B5     		push	{r3, lr}
 5948              	.LCFI111:
 5949              		.cfi_def_cfa_offset 8
 5950              		.cfi_offset 3, -8
 5951              		.cfi_offset 14, -4
  87:Core/Src/main.c **** 
 5952              		.loc 2 87 3 view .LVU1518
 5953 0002 FFF7FEFF 		bl	HAL_Init
 5954              	.LVL471:
  94:Core/Src/main.c **** 
 5955              		.loc 2 94 3 view .LVU1519
 5956 0006 FFF7FEFF 		bl	SystemClock_Config
 5957              	.LVL472:
 101:Core/Src/main.c ****   MX_RTC_Init();
 5958              		.loc 2 101 3 view .LVU1520
 5959 000a FFF7FEFF 		bl	MX_GPIO_Init
 5960              	.LVL473:
 102:Core/Src/main.c ****   MX_TIM1_Init();
 5961              		.loc 2 102 3 view .LVU1521
 5962 000e FFF7FEFF 		bl	MX_RTC_Init
 5963              	.LVL474:
 103:Core/Src/main.c ****   MX_USB_DEVICE_Init();
 5964              		.loc 2 103 3 view .LVU1522
 5965 0012 FFF7FEFF 		bl	MX_TIM1_Init
 5966              	.LVL475:
 104:Core/Src/main.c ****   MX_I2C2_Init();
 5967              		.loc 2 104 3 view .LVU1523
 5968 0016 FFF7FEFF 		bl	MX_USB_DEVICE_Init
 5969              	.LVL476:
 105:Core/Src/main.c ****   MX_IWDG_Init();
 5970              		.loc 2 105 3 view .LVU1524
 5971 001a FFF7FEFF 		bl	MX_I2C2_Init
 5972              	.LVL477:
 106:Core/Src/main.c ****   MX_TIM2_Init();
 5973              		.loc 2 106 3 view .LVU1525
 5974 001e FFF7FEFF 		bl	MX_IWDG_Init
 5975              	.LVL478:
 107:Core/Src/main.c ****   /* USER CODE BEGIN 2 */
ARM GAS  C:\Users\User\AppData\Local\Temp\ccEEhKx4.s 			page 150


 5976              		.loc 2 107 3 view .LVU1526
 5977 0022 FFF7FEFF 		bl	MX_TIM2_Init
 5978              	.LVL479:
 109:Core/Src/main.c ****   /* USER CODE END 2 */
 5979              		.loc 2 109 1 view .LVU1527
 5980 0026 FFF7FEFF 		bl	user_init
 5981              	.LVL480:
 114:Core/Src/main.c ****   {
 5982              		.loc 2 114 3 view .LVU1528
 119:Core/Src/main.c ****   }
 5983              		.loc 2 119 2 view .LVU1529
 5984 002a FFF7FEFF 		bl	user_loop
 5985              	.LVL481:
 5986              		.cfi_endproc
 5987              	.LFE126:
 5989              		.global	htim2
 5990              		.global	htim1
 5991              		.global	hrtc
 5992              		.global	hiwdg
 5993              		.global	hi2c2
 5994              		.global	sleep_delay
 5995              		.global	mode_delay
 5996              		.global	start_minutes
 5997              		.global	start_hour
 5998              		.global	mode
 5999              		.global	old_buttons
 6000              		.global	buttons
 6001              		.global	seconds
 6002              		.global	cc
 6003              		.global	testas
 6004              		.global	invertuotas
 6005              		.global	chartable
 6006              		.global	oled_line
 6007              		.global	font
 6008              		.global	LastHour
 6009              		.global	oldTime
 6010              		.global	currTime
 6011              		.section	.rodata
 6012              		.align	2
 6013              		.set	.LANCHOR16,. + 0
 6014              	.LC2:
 6015 0000 0000E7E7 		.ascii	"\000\000\347\347\347\347\000\000"
 6015      E7E70000 
 6016              		.section	.bss.buttons,"aw",%nobits
 6017              		.set	.LANCHOR15,. + 0
 6020              	buttons:
 6021 0000 00       		.space	1
 6022              		.section	.bss.cc,"aw",%nobits
 6023              		.align	2
 6024              		.set	.LANCHOR8,. + 0
 6027              	cc:
 6028 0000 00000000 		.space	20
 6028      00000000 
 6028      00000000 
 6028      00000000 
 6028      00000000 
 6029              		.section	.bss.currTime,"aw",%nobits
ARM GAS  C:\Users\User\AppData\Local\Temp\ccEEhKx4.s 			page 151


 6030              		.align	2
 6031              		.set	.LANCHOR2,. + 0
 6034              	currTime:
 6035 0000 000000   		.space	3
 6036              		.section	.bss.hi2c2,"aw",%nobits
 6037              		.align	2
 6038              		.set	.LANCHOR0,. + 0
 6041              	hi2c2:
 6042 0000 00000000 		.space	84
 6042      00000000 
 6042      00000000 
 6042      00000000 
 6042      00000000 
 6043              		.section	.bss.hiwdg,"aw",%nobits
 6044              		.align	2
 6045              		.set	.LANCHOR10,. + 0
 6048              	hiwdg:
 6049 0000 00000000 		.space	12
 6049      00000000 
 6049      00000000 
 6050              		.section	.bss.hrtc,"aw",%nobits
 6051              		.align	2
 6052              		.set	.LANCHOR3,. + 0
 6055              	hrtc:
 6056 0000 00000000 		.space	20
 6056      00000000 
 6056      00000000 
 6056      00000000 
 6056      00000000 
 6057              		.section	.bss.htim1,"aw",%nobits
 6058              		.align	2
 6059              		.set	.LANCHOR11,. + 0
 6062              	htim1:
 6063 0000 00000000 		.space	72
 6063      00000000 
 6063      00000000 
 6063      00000000 
 6063      00000000 
 6064              		.section	.bss.htim2,"aw",%nobits
 6065              		.align	2
 6066              		.set	.LANCHOR12,. + 0
 6069              	htim2:
 6070 0000 00000000 		.space	72
 6070      00000000 
 6070      00000000 
 6070      00000000 
 6070      00000000 
 6071              		.section	.bss.invertuotas,"aw",%nobits
 6074              	invertuotas:
 6075 0000 00       		.space	1
 6076              		.section	.bss.mode,"aw",%nobits
 6077              		.set	.LANCHOR18,. + 0
 6080              	mode:
 6081 0000 00       		.space	1
 6082              		.section	.bss.old_buttons,"aw",%nobits
 6083              		.set	.LANCHOR20,. + 0
 6086              	old_buttons:
ARM GAS  C:\Users\User\AppData\Local\Temp\ccEEhKx4.s 			page 152


 6087 0000 00       		.space	1
 6088              		.section	.bss.oled_line,"aw",%nobits
 6089              		.set	.LANCHOR6,. + 0
 6092              	oled_line:
 6093 0000 00       		.space	1
 6094              		.section	.bss.seconds,"aw",%nobits
 6097              	seconds:
 6098 0000 00       		.space	1
 6099              		.section	.bss.start_hour,"aw",%nobits
 6100              		.align	1
 6101              		.set	.LANCHOR13,. + 0
 6104              	start_hour:
 6105 0000 0000     		.space	2
 6106              		.section	.bss.start_minutes,"aw",%nobits
 6107              		.align	1
 6108              		.set	.LANCHOR14,. + 0
 6111              	start_minutes:
 6112 0000 0000     		.space	2
 6113              		.section	.bss.testas,"aw",%nobits
 6114              		.align	2
 6115              		.set	.LANCHOR9,. + 0
 6118              	testas:
 6119 0000 00000000 		.space	64
 6119      00000000 
 6119      00000000 
 6119      00000000 
 6119      00000000 
 6120              		.section	.data.LastHour,"aw"
 6123              	LastHour:
 6124 0000 FF       		.byte	-1
 6125              		.section	.data.font,"aw"
 6126              		.align	2
 6127              		.set	.LANCHOR5,. + 0
 6130              	font:
 6131 0000 003E7F41 		.ascii	"\000>\177AMO.\000\000 tTT|x\000\000~~HHx0\000\0008|"
 6131      4D4F2E00 
 6131      00207454 
 6131      547C7800 
 6131      007E7E48 
 6132 001b 44444400 		.ascii	"DDD\000\000\0000xHH~~\000\0008|TT\\\030\000\000\000"
 6132      00003078 
 6132      48487E7E 
 6132      0000387C 
 6132      54545C18 
 6133 0032 087C7E0A 		.ascii	"\010|~\012\012\000\000\230\274\244\244\374|\000\000"
 6133      0A000098 
 6133      BCA4A4FC 
 6133      7C0000
 6134 0041 7E7E0808 		.ascii	"~~\010\010xp\000\000\000Hzz@\000\000\000\000\200\200"
 6134      78700000 
 6134      00487A7A 
 6134      40000000 
 6134      008080
 6135 0054 80FA7A00 		.ascii	"\200\372z\000\000~~\0208h@\000\000\000B~~@\000\000\000"
 6135      007E7E10 
 6135      38684000 
 6135      0000427E 
ARM GAS  C:\Users\User\AppData\Local\Temp\ccEEhKx4.s 			page 153


 6135      7E400000 
 6136 0069 7C7C1838 		.ascii	"||\0308\034|x\000||\004\004|x\000\0008|DD|8\000\000"
 6136      1C7C7800 
 6136      7C7C0404 
 6136      7C780000 
 6136      387C4444 
 6137 0081 FCFC2424 		.ascii	"\374\374$$<\030\000\000\030<$$\374\374\000\000||\004"
 6137      3C180000 
 6137      183C2424 
 6137      FCFC0000 
 6137      7C7C04
 6138 0094 040C0800 		.ascii	"\004\014\010\000\000H\\TTt$\000\000\004\004>~DD\000"
 6138      00485C54 
 6138      54742400 
 6138      0004043E 
 6138      7E444400 
 6139 00a8 003C7C40 		.ascii	"\000<|@@||\000\000\034<``<\034\000\000\034|p8p|\034"
 6139      407C7C00 
 6139      001C3C60 
 6139      603C1C00 
 6139      001C7C70 
 6140 00c0 00446C38 		.ascii	"\000Dl88lD\000\000\234\274\240\340|<\000\000Ddt\\LD"
 6140      386C4400 
 6140      009CBCA0 
 6140      E07C3C00 
 6140      00446474 
 6141 00d7 0000007F 		.ascii	"\000\000\000\177\177AA\000\000@h|^II\"\000\000\000A"
 6141      7F414100 
 6141      0040687C 
 6141      5E494922 
 6141      00000041 
 6142 00eb 417F7F00 		.ascii	"A\177\177\000\000\000\010\014\376\376\014\010\000\000"
 6142      0000080C 
 6142      FEFE0C08 
 6142      0000
 6143 00f9 183C7E18 		.ascii	"\030<~\030\030\030\030\000\000\000\000\000\000\000\000"
 6143      18181800 
 6143      00000000 
 6143      000000
 6144 0108 0000004F 		.ascii	"\000\000\000OO\000\000\000\000\007\007\000\000\007\007"
 6144      4F000000 
 6144      00070700 
 6144      000707
 6145 0117 00147F7F 		.ascii	"\000\024\177\177\024\024\177\177\024\000$.kk:\022\000"
 6145      14147F7F 
 6145      1400242E 
 6145      6B6B3A12 
 6145      00
 6146 0128 00633318 		.ascii	"\000c3\030\014fc\000\0002\177MMwrP\000\000\000\004\006"
 6146      0C666300 
 6146      00327F4D 
 6146      4D777250 
 6146      00000004 
 6147 013d 03010000 		.ascii	"\003\001\000\000\000\034>cA\000\000\000\000Ac>\034\000"
 6147      001C3E63 
 6147      41000000 
 6147      0041633E 
ARM GAS  C:\Users\User\AppData\Local\Temp\ccEEhKx4.s 			page 154


 6147      1C00
 6148 014f 00082A3E 		.ascii	"\000\010*>\034\034>*\010\000\010\010>>\010\010\000\000"
 6148      1C1C3E2A 
 6148      08000808 
 6148      3E3E0808 
 6148      0000
 6149 0161 0080E060 		.ascii	"\000\200\340`\000\000\000\000\010\010\010\010\010\010"
 6149      00000000 
 6149      08080808 
 6149      0808
 6150 016f 00000000 		.ascii	"\000\000\000\000``\000\000\000\000@`0\030\014\006\002"
 6150      60600000 
 6150      00004060 
 6150      30180C06 
 6150      02
 6151 0180 003E7F49 		.ascii	"\000>\177IE\177>\000\000@D\177\177@@\000\000bsQIOF\000"
 6151      457F3E00 
 6151      0040447F 
 6151      7F404000 
 6151      00627351 
 6152 0198 00226349 		.ascii	"\000\"cII\1776\000\000\030\030\024\026\177\177\020\000"
 6152      497F3600 
 6152      00181814 
 6152      167F7F10 
 6152      00
 6153 01a9 27674545 		.ascii	"'gEE}9\000\000>\177II{2\000\000\003\003y}\007\003\000"
 6153      7D390000 
 6153      3E7F4949 
 6153      7B320000 
 6153      0303797D 
 6154 01c0 00367F49 		.ascii	"\0006\177II\1776\000\000&oII\177>\000\000\000\000$$"
 6154      497F3600 
 6154      00266F49 
 6154      497F3E00 
 6154      00000024 
 6155 01d5 00000000 		.ascii	"\000\000\000\000\000\200\344d\000\000\000\000\010\034"
 6155      0080E464 
 6155      00000000 
 6155      081C
 6156 01e3 36634141 		.ascii	"6cAA\000\000\024\024\024\024\024\024\000\000AAc6\034"
 6156      00001414 
 6156      14141414 
 6156      00004141 
 6156      63361C
 6157 01f6 08000002 		.ascii	"\010\000\000\002\003QY\017\006\000\030\030\030\030\030"
 6157      0351590F 
 6157      06001818 
 6157      181818
 6158 0205 18181800 		.ascii	"\030\030\030\000|~\013\013~|\000\000\177\177II\1776"
 6158      7C7E0B0B 
 6158      7E7C0000 
 6158      7F7F4949 
 6158      7F36
 6159 0217 00003E7F 		.ascii	"\000\000>\177AAc\"\000\000\177\177Ac>\034\000\000\177"
 6159      41416322 
 6159      00007F7F 
 6159      41633E1C 
ARM GAS  C:\Users\User\AppData\Local\Temp\ccEEhKx4.s 			page 155


 6159      00007F
 6160 022a 7F494941 		.ascii	"\177IIAA\000\000\177\177\011\011\001\001\000\000>\177"
 6160      4100007F 
 6160      7F090901 
 6160      0100003E 
 6160      7F
 6161 023b 41497B3A 		.ascii	"AI{:\000\000\177\177\010\010\177\177\000\000\000A\177"
 6161      00007F7F 
 6161      08087F7F 
 6161      00000041 
 6161      7F
 6162 024c 7F410000 		.ascii	"\177A\000\000\000 `A\177?\001\000\000\177\177\0346c"
 6162      00206041 
 6162      7F3F0100 
 6162      007F7F1C 
 6162      3663
 6163 025e 4100007F 		.ascii	"A\000\000\177\177@@@@\000\000\177\177\006\014\006\177"
 6163      7F404040 
 6163      4000007F 
 6163      7F060C06 
 6163      7F
 6164 026f 7F007F7F 		.ascii	"\177\000\177\177\016\034\177\177\000\000>\177AA\177"
 6164      0E1C7F7F 
 6164      00003E7F 
 6164      41417F
 6165 027e 3E00007F 		.ascii	">\000\000\177\177\011\011\017\006\000\000\036?!a\177"
 6165      7F09090F 
 6165      0600001E 
 6165      3F21617F 
 6166 028e 5E00007F 		.ascii	"^\000\000\177\177\0319oF\000\000&oII{2\000\000\001\001"
 6166      7F19396F 
 6166      46000026 
 6166      6F49497B 
 6166      32000001 
 6167 02a3 7F7F0101 		.ascii	"\177\177\001\001\000\000?\177@@\177?\000\000\037?``"
 6167      00003F7F 
 6167      40407F3F 
 6167      00001F3F 
 6167      6060
 6168 02b5 3F1F0000 		.ascii	"?\037\000\000\177\1770\0300\177\177\000cw\034\034wc"
 6168      7F7F3018 
 6168      307F7F00 
 6168      63771C1C 
 6168      7763
 6169 02c7 0000070F 		.ascii	"\000\000\007\017xx\017\007\000\000aqYMGC\000\030\030"
 6169      78780F07 
 6169      00006171 
 6169      594D4743 
 6169      001818
 6170 02da 18FFFF18 		.ascii	"\030\377\377\030\030\03033\314\314\000\000\000\000\000"
 6170      18183333 
 6170      CCCC0000 
 6170      000000
 6171 02e9 0000FFFF 		.ascii	"\000\000\377\377\000\000\000\000\000\000\017\017\000"
 6171      00000000 
 6171      00000F0F 
 6171      00
ARM GAS  C:\Users\User\AppData\Local\Temp\ccEEhKx4.s 			page 156


 6172 02f6 00000000 		.ascii	"\000\000\000\000\000\360\360\000\000\000\377\377\377"
 6172      00F0F000 
 6172      0000FFFF 
 6172      FF
 6173 0303 FFFFFFFF 		.ascii	"\377\377\377\377\377\000|~\013\013~|\000\360\360\360"
 6173      FF007C7E 
 6173      0B0B7E7C 
 6173      00F0F0F0 
 6174 0313 F0F0F0F0 		.ascii	"\360\360\360\360\360\001\001\001\001\001\001\001\001"
 6174      F0010101 
 6174      01010101 
 6174      01
 6175 0320 80808080 		.ascii	"\200\200\200\200\200\200\200\200\377\377\000\000\000"
 6175      80808080 
 6175      FFFF0000 
 6175      00
 6176 032d 00000033 		.ascii	"\000\000\00033\314\31433\314\314\000\000\000\000\000"
 6176      33CCCC33 
 6176      33CCCC00 
 6176      00000000 
 6177 033d 00FFFF30 		.ascii	"\000\377\37700\300\30000\300\3003\231\314f3\231\314"
 6177      30C0C030 
 6177      30C0C033 
 6177      99CC6633 
 6177      99CC
 6178 034f 66000000 		.ascii	"f\000\000\000\000\000\000\377\377\000\000\000\377\377"
 6178      000000FF 
 6178      FF000000 
 6178      FFFF
 6179 035d 18181800 		.ascii	"\030\030\030\000\000\000\000\360\360\360\360\000\000"
 6179      000000F0 
 6179      F0F0F000 
 6179      00
 6180 036a 001F1F18 		.ascii	"\000\037\037\030\030\030\030\030\030\370\370\000\000"
 6180      18181818 
 6180      18F8F800 
 6180      00
 6181 0377 00C0C0C0 		.ascii	"\000\300\300\300\300\300\300\300\300\000\000\000\370"
 6181      C0C0C0C0 
 6181      C0000000 
 6181      F8
 6182 0384 F8181818 		.ascii	"\370\030\030\030\030\030\030\037\037\030\030\030\030"
 6182      1818181F 
 6182      1F181818 
 6182      18
 6183 0391 1818F8F8 		.ascii	"\030\030\370\370\030\030\030\030\030\030\377\377\000"
 6183      18181818 
 6183      1818FFFF 
 6183      00
 6184 039e 0000FFFF 		.ascii	"\000\000\377\377\000\000\000\000\000\000\377\377\377"
 6184      00000000 
 6184      0000FFFF 
 6184      FF
 6185 03ab 00000000 		.ascii	"\000\000\000\000\000\000\000\000\000\000\377\377\377"
 6185      00000000 
 6185      0000FFFF 
 6185      FF
ARM GAS  C:\Users\User\AppData\Local\Temp\ccEEhKx4.s 			page 157


 6186 03b8 03030303 		.ascii	"\003\003\003\003\003\003\003\003\007\007\007\007\007"
 6186      03030303 
 6186      07070707 
 6186      07
 6187 03c5 070707E0 		.ascii	"\007\007\007\340\340\340\340\340\340\340\340\000xx0"
 6187      E0E0E0E0 
 6187      E0E0E000 
 6187      787830
 6188 03d4 180C0603 		.ascii	"\030\014\006\003\360\360\360\360\000\000\000\000\000"
 6188      F0F0F0F0 
 6188      00000000 
 6188      00
 6189 03e1 0000000F 		.ascii	"\000\000\000\017\017\017\017\030\030\030\037\037\000"
 6189      0F0F0F18 
 6189      18181F1F 
 6189      00
 6190 03ee 00000F0F 		.ascii	"\000\000\017\017\017\017\000\000\000\000\017\017\017"
 6190      0F0F0000 
 6190      00000F0F 
 6190      0F
 6191 03fb 0FF0F0F0 		.ascii	"\017\360\360\360\360"
 6191      F0
 6192              		.section	.data.init1.0,"aw"
 6193              		.align	2
 6194              		.set	.LANCHOR4,. + 0
 6197              	init1.0:
 6198 0000 00AED580 		.ascii	"\000\256\325\200\250\037\323\000@\215\024 \000\241\310"
 6198      A81FD300 
 6198      408D1420 
 6198      00A1C8
 6199 000f DA02818F 		.ascii	"\332\002\201\217\331\361\333@\244\246.\257"
 6199      D9F1DB40 
 6199      A4A62EAF 
 6200              		.section	.data.mode_delay,"aw"
 6201              		.set	.LANCHOR17,. + 0
 6204              	mode_delay:
 6205 0000 1E       		.byte	30
 6206              		.section	.data.oldTime,"aw"
 6207              		.align	2
 6208              		.set	.LANCHOR1,. + 0
 6211              	oldTime:
 6212 0000 FF       		.byte	-1
 6213 0001 FF       		.byte	-1
 6214 0002 FF       		.byte	-1
 6215              		.section	.data.sleep_delay,"aw"
 6216              		.align	2
 6217              		.set	.LANCHOR19,. + 0
 6220              	sleep_delay:
 6221 0000 2C010000 		.word	300
 6222              		.section	.rodata.chartable,"a"
 6223              		.align	2
 6224              		.set	.LANCHOR7,. + 0
 6227              	chartable:
 6228 0000 100E5D5D 		.ascii	"\020\016]]\015\035 \016 ] \021\020\016\020\035\015\035"
 6228      0D1D200E 
 6228      205D2011 
 6228      100E101D 
ARM GAS  C:\Users\User\AppData\Local\Temp\ccEEhKx4.s 			page 158


 6228      0D1D
 6229 0012 100E2013 		.ascii	"\020\016 \023\015\035__\015\023 ^\020\016\015\016\015"
 6229      0D1D5F5F 
 6229      0D13205E 
 6229      100E0D0E 
 6229      0D
 6230 0023 1D100E0B 		.ascii	"\035\020\016\013\016\015\035\020\016 [ ^\020\016\013"
 6230      0E0D1D10 
 6230      0E205B20 
 6230      5E100E0B 
 6231 0033 130D1D10 		.ascii	"\023\015\035\020\016\015\023\015\035"
 6231      0E0D130D 
 6231      1D
 6232              		.text
 6233              	.Letext0:
 6234              		.file 7 "c:\\program files (x86)\\gnu arm embedded toolchain\\arm\\arm-none-eabi\\include\\machine
 6235              		.file 8 "c:\\program files (x86)\\gnu arm embedded toolchain\\arm\\arm-none-eabi\\include\\sys\\_s
 6236              		.file 9 "Drivers/CMSIS/Device/ST/STM32F1xx/Include/stm32f103xe.h"
 6237              		.file 10 "c:\\program files (x86)\\gnu arm embedded toolchain\\arm\\lib\\gcc\\arm-none-eabi\\10.3.
 6238              		.file 11 "Drivers/STM32F1xx_HAL_Driver/Inc/stm32f1xx_hal_def.h"
 6239              		.file 12 "Drivers/STM32F1xx_HAL_Driver/Inc/stm32f1xx_hal_rcc.h"
 6240              		.file 13 "Drivers/STM32F1xx_HAL_Driver/Inc/stm32f1xx_hal_rcc_ex.h"
 6241              		.file 14 "Drivers/STM32F1xx_HAL_Driver/Inc/stm32f1xx_hal_gpio.h"
 6242              		.file 15 "Drivers/STM32F1xx_HAL_Driver/Inc/stm32f1xx_hal_dma.h"
 6243              		.file 16 "Drivers/STM32F1xx_HAL_Driver/Inc/stm32f1xx_hal_i2c.h"
 6244              		.file 17 "Drivers/STM32F1xx_HAL_Driver/Inc/stm32f1xx_hal_iwdg.h"
 6245              		.file 18 "Drivers/STM32F1xx_HAL_Driver/Inc/stm32f1xx_hal_rtc.h"
 6246              		.file 19 "Drivers/STM32F1xx_HAL_Driver/Inc/stm32f1xx_hal_tim.h"
 6247              		.file 20 "Core/Src/USER/circular_buffer.h"
 6248              		.file 21 "Core/Src/USER/oled/font_c64_lower.h"
 6249              		.file 22 "Drivers/STM32F1xx_HAL_Driver/Inc/stm32f1xx_hal_tim_ex.h"
 6250              		.file 23 "Core/Inc/main.h"
 6251              		.file 24 "Drivers/STM32F1xx_HAL_Driver/Inc/stm32f1xx_hal_cortex.h"
 6252              		.file 25 "Drivers/STM32F1xx_HAL_Driver/Inc/stm32f1xx_hal_pwr.h"
 6253              		.file 26 "Drivers/STM32F1xx_HAL_Driver/Inc/stm32f1xx_hal_rtc_ex.h"
 6254              		.file 27 "Drivers/STM32F1xx_HAL_Driver/Inc/stm32f1xx_hal.h"
 6255              		.file 28 "USB_DEVICE/App/usb_device.h"
 6256              		.file 29 "USB_DEVICE/App/usbd_cdc_if.h"
 6257              		.file 30 "c:\\program files (x86)\\gnu arm embedded toolchain\\arm\\arm-none-eabi\\include\\stdlib
 6258              		.file 31 "<built-in>"
 6259              		.file 32 "c:\\program files (x86)\\gnu arm embedded toolchain\\arm\\arm-none-eabi\\include\\string
ARM GAS  C:\Users\User\AppData\Local\Temp\ccEEhKx4.s 			page 159


DEFINED SYMBOLS
                            *ABS*:00000000 main.c
C:\Users\User\AppData\Local\Temp\ccEEhKx4.s:18     .text.SSD1306_present:00000000 $t
C:\Users\User\AppData\Local\Temp\ccEEhKx4.s:23     .text.SSD1306_present:00000000 SSD1306_present
C:\Users\User\AppData\Local\Temp\ccEEhKx4.s:62     .text.SSD1306_present:00000018 $d
C:\Users\User\AppData\Local\Temp\ccEEhKx4.s:67     .text.MX_GPIO_Init:00000000 $t
C:\Users\User\AppData\Local\Temp\ccEEhKx4.s:72     .text.MX_GPIO_Init:00000000 MX_GPIO_Init
C:\Users\User\AppData\Local\Temp\ccEEhKx4.s:207    .text.MX_GPIO_Init:00000090 $d
C:\Users\User\AppData\Local\Temp\ccEEhKx4.s:214    .text.rtc_clean:00000000 $t
C:\Users\User\AppData\Local\Temp\ccEEhKx4.s:220    .text.rtc_clean:00000000 rtc_clean
C:\Users\User\AppData\Local\Temp\ccEEhKx4.s:244    .text.rtc_clean:0000000c $d
C:\Users\User\AppData\Local\Temp\ccEEhKx4.s:249    .text.filter_string:00000000 $t
C:\Users\User\AppData\Local\Temp\ccEEhKx4.s:255    .text.filter_string:00000000 filter_string
C:\Users\User\AppData\Local\Temp\ccEEhKx4.s:338    .text.rtc_update:00000000 $t
C:\Users\User\AppData\Local\Temp\ccEEhKx4.s:344    .text.rtc_update:00000000 rtc_update
C:\Users\User\AppData\Local\Temp\ccEEhKx4.s:366    .text.rtc_update:00000010 $d
C:\Users\User\AppData\Local\Temp\ccEEhKx4.s:372    .text.rtc_time_string:00000000 $t
C:\Users\User\AppData\Local\Temp\ccEEhKx4.s:378    .text.rtc_time_string:00000000 rtc_time_string
C:\Users\User\AppData\Local\Temp\ccEEhKx4.s:474    .text.rtc_time_string:00000074 $d
C:\Users\User\AppData\Local\Temp\ccEEhKx4.s:481    .text.rtc_date_string:00000000 $t
C:\Users\User\AppData\Local\Temp\ccEEhKx4.s:487    .text.rtc_date_string:00000000 rtc_date_string
C:\Users\User\AppData\Local\Temp\ccEEhKx4.s:584    .text.rtc_date_string:00000078 $d
C:\Users\User\AppData\Local\Temp\ccEEhKx4.s:590    .text.rtc_int_init:00000000 $t
C:\Users\User\AppData\Local\Temp\ccEEhKx4.s:596    .text.rtc_int_init:00000000 rtc_int_init
C:\Users\User\AppData\Local\Temp\ccEEhKx4.s:614    .text.rtc_int_init:00000010 $d
C:\Users\User\AppData\Local\Temp\ccEEhKx4.s:619    .text.circle_reset:00000000 $t
C:\Users\User\AppData\Local\Temp\ccEEhKx4.s:625    .text.circle_reset:00000000 circle_reset
C:\Users\User\AppData\Local\Temp\ccEEhKx4.s:653    .text.circle_push:00000000 $t
C:\Users\User\AppData\Local\Temp\ccEEhKx4.s:659    .text.circle_push:00000000 circle_push
C:\Users\User\AppData\Local\Temp\ccEEhKx4.s:705    .text.circle_pull:00000000 $t
C:\Users\User\AppData\Local\Temp\ccEEhKx4.s:711    .text.circle_pull:00000000 circle_pull
C:\Users\User\AppData\Local\Temp\ccEEhKx4.s:760    .text.circle_push_buf:00000000 $t
C:\Users\User\AppData\Local\Temp\ccEEhKx4.s:766    .text.circle_push_buf:00000000 circle_push_buf
C:\Users\User\AppData\Local\Temp\ccEEhKx4.s:816    .text.circle_available:00000000 $t
C:\Users\User\AppData\Local\Temp\ccEEhKx4.s:822    .text.circle_available:00000000 circle_available
C:\Users\User\AppData\Local\Temp\ccEEhKx4.s:840    .text.circle_free:00000000 $t
C:\Users\User\AppData\Local\Temp\ccEEhKx4.s:846    .text.circle_free:00000000 circle_free
C:\Users\User\AppData\Local\Temp\ccEEhKx4.s:867    .text.getRotation:00000000 $t
C:\Users\User\AppData\Local\Temp\ccEEhKx4.s:873    .text.getRotation:00000000 getRotation
C:\Users\User\AppData\Local\Temp\ccEEhKx4.s:888    .text.SSD1306_command1:00000000 $t
C:\Users\User\AppData\Local\Temp\ccEEhKx4.s:894    .text.SSD1306_command1:00000000 SSD1306_command1
C:\Users\User\AppData\Local\Temp\ccEEhKx4.s:937    .text.SSD1306_command1:00000024 $d
C:\Users\User\AppData\Local\Temp\ccEEhKx4.s:942    .text.SSD1306_sendbuffer:00000000 $t
C:\Users\User\AppData\Local\Temp\ccEEhKx4.s:948    .text.SSD1306_sendbuffer:00000000 SSD1306_sendbuffer
C:\Users\User\AppData\Local\Temp\ccEEhKx4.s:985    .text.SSD1306_sendbuffer:0000001c $d
C:\Users\User\AppData\Local\Temp\ccEEhKx4.s:990    .text.SSD1306_write:00000000 $t
C:\Users\User\AppData\Local\Temp\ccEEhKx4.s:996    .text.SSD1306_write:00000000 SSD1306_write
C:\Users\User\AppData\Local\Temp\ccEEhKx4.s:1055   .text.SSD1306_write:00000030 $d
C:\Users\User\AppData\Local\Temp\ccEEhKx4.s:1060   .text.SSD1306_Init:00000000 $t
C:\Users\User\AppData\Local\Temp\ccEEhKx4.s:1066   .text.SSD1306_Init:00000000 SSD1306_Init
C:\Users\User\AppData\Local\Temp\ccEEhKx4.s:1108   .text.SSD1306_Init:00000024 $d
C:\Users\User\AppData\Local\Temp\ccEEhKx4.s:1113   .text.SSD1306_off:00000000 $t
C:\Users\User\AppData\Local\Temp\ccEEhKx4.s:1119   .text.SSD1306_off:00000000 SSD1306_off
C:\Users\User\AppData\Local\Temp\ccEEhKx4.s:1140   .text.SSD1306_on:00000000 $t
C:\Users\User\AppData\Local\Temp\ccEEhKx4.s:1146   .text.SSD1306_on:00000000 SSD1306_on
C:\Users\User\AppData\Local\Temp\ccEEhKx4.s:1167   .text.SSD1306_invert:00000000 $t
C:\Users\User\AppData\Local\Temp\ccEEhKx4.s:1173   .text.SSD1306_invert:00000000 SSD1306_invert
ARM GAS  C:\Users\User\AppData\Local\Temp\ccEEhKx4.s 			page 160


C:\Users\User\AppData\Local\Temp\ccEEhKx4.s:1194   .text.SSD1306_normal:00000000 $t
C:\Users\User\AppData\Local\Temp\ccEEhKx4.s:1200   .text.SSD1306_normal:00000000 SSD1306_normal
C:\Users\User\AppData\Local\Temp\ccEEhKx4.s:1221   .text.SSD1306_flip:00000000 $t
C:\Users\User\AppData\Local\Temp\ccEEhKx4.s:1227   .text.SSD1306_flip:00000000 SSD1306_flip
C:\Users\User\AppData\Local\Temp\ccEEhKx4.s:1261   .text.SSD1306_set_addr_mode:00000000 $t
C:\Users\User\AppData\Local\Temp\ccEEhKx4.s:1267   .text.SSD1306_set_addr_mode:00000000 SSD1306_set_addr_mode
C:\Users\User\AppData\Local\Temp\ccEEhKx4.s:1310   .text.SSD1306_scroll:00000000 $t
C:\Users\User\AppData\Local\Temp\ccEEhKx4.s:1316   .text.SSD1306_scroll:00000000 SSD1306_scroll
C:\Users\User\AppData\Local\Temp\ccEEhKx4.s:1357   .text.SSD1306_put_tile:00000000 $t
C:\Users\User\AppData\Local\Temp\ccEEhKx4.s:1363   .text.SSD1306_put_tile:00000000 SSD1306_put_tile
C:\Users\User\AppData\Local\Temp\ccEEhKx4.s:1422   .text.SSD1306_putc_raw:00000000 $t
C:\Users\User\AppData\Local\Temp\ccEEhKx4.s:1428   .text.SSD1306_putc_raw:00000000 SSD1306_putc_raw
C:\Users\User\AppData\Local\Temp\ccEEhKx4.s:1454   .text.SSD1306_putc_raw:00000010 $d
C:\Users\User\AppData\Local\Temp\ccEEhKx4.s:1459   .text.SSD1306_putc:00000000 $t
C:\Users\User\AppData\Local\Temp\ccEEhKx4.s:1465   .text.SSD1306_putc:00000000 SSD1306_putc
C:\Users\User\AppData\Local\Temp\ccEEhKx4.s:1531   .text.SSD1306_move_raw:00000000 $t
C:\Users\User\AppData\Local\Temp\ccEEhKx4.s:1537   .text.SSD1306_move_raw:00000000 SSD1306_move_raw
C:\Users\User\AppData\Local\Temp\ccEEhKx4.s:1609   .text.SSD1306_move:00000000 $t
C:\Users\User\AppData\Local\Temp\ccEEhKx4.s:1615   .text.SSD1306_move:00000000 SSD1306_move
C:\Users\User\AppData\Local\Temp\ccEEhKx4.s:1657   .text.SSD1306_home:00000000 $t
C:\Users\User\AppData\Local\Temp\ccEEhKx4.s:1663   .text.SSD1306_home:00000000 SSD1306_home
C:\Users\User\AppData\Local\Temp\ccEEhKx4.s:1685   .text.SSD1306_clear:00000000 $t
C:\Users\User\AppData\Local\Temp\ccEEhKx4.s:1691   .text.SSD1306_clear:00000000 SSD1306_clear
C:\Users\User\AppData\Local\Temp\ccEEhKx4.s:1771   .text.SSD1306_clear:00000054 $d
C:\Users\User\AppData\Local\Temp\ccEEhKx4.s:1776   .text.SSD1306_fill:00000000 $t
C:\Users\User\AppData\Local\Temp\ccEEhKx4.s:1782   .text.SSD1306_fill:00000000 SSD1306_fill
C:\Users\User\AppData\Local\Temp\ccEEhKx4.s:1896   .text.SSD1306_putxy:00000000 $t
C:\Users\User\AppData\Local\Temp\ccEEhKx4.s:1902   .text.SSD1306_putxy:00000000 SSD1306_putxy
C:\Users\User\AppData\Local\Temp\ccEEhKx4.s:2035   .text.SSD1306_puts:00000000 $t
C:\Users\User\AppData\Local\Temp\ccEEhKx4.s:2041   .text.SSD1306_puts:00000000 SSD1306_puts
C:\Users\User\AppData\Local\Temp\ccEEhKx4.s:2081   .text.SSD1306_bigdigit:00000000 $t
C:\Users\User\AppData\Local\Temp\ccEEhKx4.s:2087   .text.SSD1306_bigdigit:00000000 SSD1306_bigdigit
C:\Users\User\AppData\Local\Temp\ccEEhKx4.s:2176   .text.SSD1306_bigdigit:00000048 $d
C:\Users\User\AppData\Local\Temp\ccEEhKx4.s:2181   .text.SSD1306_box:00000000 $t
C:\Users\User\AppData\Local\Temp\ccEEhKx4.s:2187   .text.SSD1306_box:00000000 SSD1306_box
C:\Users\User\AppData\Local\Temp\ccEEhKx4.s:2354   .text.SSD1306_scroll_print:00000000 $t
C:\Users\User\AppData\Local\Temp\ccEEhKx4.s:2360   .text.SSD1306_scroll_print:00000000 SSD1306_scroll_print
C:\Users\User\AppData\Local\Temp\ccEEhKx4.s:2432   .text.SSD1306_scroll_print:00000040 $d
C:\Users\User\AppData\Local\Temp\ccEEhKx4.s:2437   .text.SSD1306_stopscroll:00000000 $t
C:\Users\User\AppData\Local\Temp\ccEEhKx4.s:2443   .text.SSD1306_stopscroll:00000000 SSD1306_stopscroll
C:\Users\User\AppData\Local\Temp\ccEEhKx4.s:2464   .text.SSD1306_dim:00000000 $t
C:\Users\User\AppData\Local\Temp\ccEEhKx4.s:2470   .text.SSD1306_dim:00000000 SSD1306_dim
C:\Users\User\AppData\Local\Temp\ccEEhKx4.s:2512   .text.SSD1306_startscrollright:00000000 $t
C:\Users\User\AppData\Local\Temp\ccEEhKx4.s:2518   .text.SSD1306_startscrollright:00000000 SSD1306_startscrollright
C:\Users\User\AppData\Local\Temp\ccEEhKx4.s:2575   .text.SSD1306_startscrollleft:00000000 $t
C:\Users\User\AppData\Local\Temp\ccEEhKx4.s:2581   .text.SSD1306_startscrollleft:00000000 SSD1306_startscrollleft
C:\Users\User\AppData\Local\Temp\ccEEhKx4.s:2638   .text.SSD1306_startscrolldiagright:00000000 $t
C:\Users\User\AppData\Local\Temp\ccEEhKx4.s:2644   .text.SSD1306_startscrolldiagright:00000000 SSD1306_startscrolldiagright
C:\Users\User\AppData\Local\Temp\ccEEhKx4.s:2709   .text.SSD1306_startscrolldiagleft:00000000 $t
C:\Users\User\AppData\Local\Temp\ccEEhKx4.s:2715   .text.SSD1306_startscrolldiagleft:00000000 SSD1306_startscrolldiagleft
C:\Users\User\AppData\Local\Temp\ccEEhKx4.s:2780   .text.user_usb_rx:00000000 $t
C:\Users\User\AppData\Local\Temp\ccEEhKx4.s:2786   .text.user_usb_rx:00000000 user_usb_rx
C:\Users\User\AppData\Local\Temp\ccEEhKx4.s:2849   .text.user_usb_rx:00000024 $d
C:\Users\User\AppData\Local\Temp\ccEEhKx4.s:2854   .rodata.user_init.str1.4:00000000 $d
C:\Users\User\AppData\Local\Temp\ccEEhKx4.s:2858   .text.user_init:00000000 $t
C:\Users\User\AppData\Local\Temp\ccEEhKx4.s:2864   .text.user_init:00000000 user_init
C:\Users\User\AppData\Local\Temp\ccEEhKx4.s:2992   .text.user_init:000000b4 $d
ARM GAS  C:\Users\User\AppData\Local\Temp\ccEEhKx4.s 			page 161


C:\Users\User\AppData\Local\Temp\ccEEhKx4.s:3006   .text.ReadPins:00000000 $t
C:\Users\User\AppData\Local\Temp\ccEEhKx4.s:3012   .text.ReadPins:00000000 ReadPins
C:\Users\User\AppData\Local\Temp\ccEEhKx4.s:3101   .text.ReadPins:0000006c $d
C:\Users\User\AppData\Local\Temp\ccEEhKx4.s:3107   .text.set_start_text:00000000 $t
C:\Users\User\AppData\Local\Temp\ccEEhKx4.s:3113   .text.set_start_text:00000000 set_start_text
C:\Users\User\AppData\Local\Temp\ccEEhKx4.s:3189   .text.set_start_text:00000044 $d
C:\Users\User\AppData\Local\Temp\ccEEhKx4.s:3195   .rodata.show_help.str1.4:00000000 $d
C:\Users\User\AppData\Local\Temp\ccEEhKx4.s:3203   .text.show_help:00000000 $t
C:\Users\User\AppData\Local\Temp\ccEEhKx4.s:3209   .text.show_help:00000000 show_help
C:\Users\User\AppData\Local\Temp\ccEEhKx4.s:3248   .text.show_help:00000024 $d
C:\Users\User\AppData\Local\Temp\ccEEhKx4.s:3253   .text.Write_Start_stop:00000000 $t
C:\Users\User\AppData\Local\Temp\ccEEhKx4.s:3259   .text.Write_Start_stop:00000000 Write_Start_stop
C:\Users\User\AppData\Local\Temp\ccEEhKx4.s:3318   .text.Write_Start_stop:00000040 $d
C:\Users\User\AppData\Local\Temp\ccEEhKx4.s:3326   .text.show_time:00000000 $t
C:\Users\User\AppData\Local\Temp\ccEEhKx4.s:3332   .text.show_time:00000000 show_time
C:\Users\User\AppData\Local\Temp\ccEEhKx4.s:3463   .text.show_time:000000c0 $d
C:\Users\User\AppData\Local\Temp\ccEEhKx4.s:3471   .text.user_seconds_job:00000000 $t
C:\Users\User\AppData\Local\Temp\ccEEhKx4.s:3477   .text.user_seconds_job:00000000 user_seconds_job
C:\Users\User\AppData\Local\Temp\ccEEhKx4.s:3566   .text.user_seconds_job:0000005c $d
C:\Users\User\AppData\Local\Temp\ccEEhKx4.s:3574   .text.HAL_RTCEx_RTCEventCallback:00000000 $t
C:\Users\User\AppData\Local\Temp\ccEEhKx4.s:3580   .text.HAL_RTCEx_RTCEventCallback:00000000 HAL_RTCEx_RTCEventCallback
C:\Users\User\AppData\Local\Temp\ccEEhKx4.s:3602   .rodata.HAL_TIM_PeriodElapsedCallback.str1.4:00000000 $d
C:\Users\User\AppData\Local\Temp\ccEEhKx4.s:3618   .text.HAL_TIM_PeriodElapsedCallback:00000000 $t
C:\Users\User\AppData\Local\Temp\ccEEhKx4.s:3624   .text.HAL_TIM_PeriodElapsedCallback:00000000 HAL_TIM_PeriodElapsedCallback
C:\Users\User\AppData\Local\Temp\ccEEhKx4.s:3764   .text.HAL_TIM_PeriodElapsedCallback:0000009e $d
C:\Users\User\AppData\Local\Temp\ccEEhKx4.s:3769   .text.HAL_TIM_PeriodElapsedCallback:000000a8 $t
C:\Users\User\AppData\Local\Temp\ccEEhKx4.s:4189   .text.HAL_TIM_PeriodElapsedCallback:00000240 $d
C:\Users\User\AppData\Local\Temp\ccEEhKx4.s:4211   .text.HAL_TIM_PeriodElapsedCallback:00000270 $t
C:\Users\User\AppData\Local\Temp\ccEEhKx4.s:4475   .text.HAL_TIM_PeriodElapsedCallback:000003a4 $d
C:\Users\User\AppData\Local\Temp\ccEEhKx4.s:4486   .text.Error_Handler:00000000 $t
C:\Users\User\AppData\Local\Temp\ccEEhKx4.s:4492   .text.Error_Handler:00000000 Error_Handler
C:\Users\User\AppData\Local\Temp\ccEEhKx4.s:4523   .text.rtc_set_date_text:00000000 $t
C:\Users\User\AppData\Local\Temp\ccEEhKx4.s:4529   .text.rtc_set_date_text:00000000 rtc_set_date_text
C:\Users\User\AppData\Local\Temp\ccEEhKx4.s:4626   .text.rtc_set_date_text:00000060 $d
C:\Users\User\AppData\Local\Temp\ccEEhKx4.s:4631   .text.rtc_set_time_text:00000000 $t
C:\Users\User\AppData\Local\Temp\ccEEhKx4.s:4637   .text.rtc_set_time_text:00000000 rtc_set_time_text
C:\Users\User\AppData\Local\Temp\ccEEhKx4.s:4737   .text.rtc_set_time_text:0000005c $d
C:\Users\User\AppData\Local\Temp\ccEEhKx4.s:4743   .rodata.commandcom.str1.4:00000000 $d
C:\Users\User\AppData\Local\Temp\ccEEhKx4.s:4750   .text.commandcom:00000000 $t
C:\Users\User\AppData\Local\Temp\ccEEhKx4.s:4756   .text.commandcom:00000000 commandcom
C:\Users\User\AppData\Local\Temp\ccEEhKx4.s:4792   .text.commandcom:0000001c $d
C:\Users\User\AppData\Local\Temp\ccEEhKx4.s:4812   .text.commandcom:00000030 $t
C:\Users\User\AppData\Local\Temp\ccEEhKx4.s:4968   .text.commandcom:000000c8 $d
C:\Users\User\AppData\Local\Temp\ccEEhKx4.s:4980   .text.user_loop:00000000 $t
C:\Users\User\AppData\Local\Temp\ccEEhKx4.s:4986   .text.user_loop:00000000 user_loop
C:\Users\User\AppData\Local\Temp\ccEEhKx4.s:5096   .text.user_loop:00000060 $d
C:\Users\User\AppData\Local\Temp\ccEEhKx4.s:5102   .text.MX_RTC_Init:00000000 $t
C:\Users\User\AppData\Local\Temp\ccEEhKx4.s:5107   .text.MX_RTC_Init:00000000 MX_RTC_Init
C:\Users\User\AppData\Local\Temp\ccEEhKx4.s:5274   .text.MX_RTC_Init:000000cc $d
C:\Users\User\AppData\Local\Temp\ccEEhKx4.s:5281   .text.MX_TIM1_Init:00000000 $t
C:\Users\User\AppData\Local\Temp\ccEEhKx4.s:5286   .text.MX_TIM1_Init:00000000 MX_TIM1_Init
C:\Users\User\AppData\Local\Temp\ccEEhKx4.s:5498   .text.MX_TIM1_Init:000000d8 $d
C:\Users\User\AppData\Local\Temp\ccEEhKx4.s:5504   .text.MX_I2C2_Init:00000000 $t
C:\Users\User\AppData\Local\Temp\ccEEhKx4.s:5509   .text.MX_I2C2_Init:00000000 MX_I2C2_Init
C:\Users\User\AppData\Local\Temp\ccEEhKx4.s:5567   .text.MX_I2C2_Init:0000002c $d
C:\Users\User\AppData\Local\Temp\ccEEhKx4.s:5574   .text.MX_IWDG_Init:00000000 $t
C:\Users\User\AppData\Local\Temp\ccEEhKx4.s:5579   .text.MX_IWDG_Init:00000000 MX_IWDG_Init
ARM GAS  C:\Users\User\AppData\Local\Temp\ccEEhKx4.s 			page 162


C:\Users\User\AppData\Local\Temp\ccEEhKx4.s:5618   .text.MX_IWDG_Init:00000020 $d
C:\Users\User\AppData\Local\Temp\ccEEhKx4.s:5624   .text.MX_TIM2_Init:00000000 $t
C:\Users\User\AppData\Local\Temp\ccEEhKx4.s:5629   .text.MX_TIM2_Init:00000000 MX_TIM2_Init
C:\Users\User\AppData\Local\Temp\ccEEhKx4.s:5779   .text.MX_TIM2_Init:0000009c $d
C:\Users\User\AppData\Local\Temp\ccEEhKx4.s:5784   .text.SystemClock_Config:00000000 $t
C:\Users\User\AppData\Local\Temp\ccEEhKx4.s:5790   .text.SystemClock_Config:00000000 SystemClock_Config
C:\Users\User\AppData\Local\Temp\ccEEhKx4.s:5934   .text.main:00000000 $t
C:\Users\User\AppData\Local\Temp\ccEEhKx4.s:5940   .text.main:00000000 main
C:\Users\User\AppData\Local\Temp\ccEEhKx4.s:6069   .bss.htim2:00000000 htim2
C:\Users\User\AppData\Local\Temp\ccEEhKx4.s:6062   .bss.htim1:00000000 htim1
C:\Users\User\AppData\Local\Temp\ccEEhKx4.s:6055   .bss.hrtc:00000000 hrtc
C:\Users\User\AppData\Local\Temp\ccEEhKx4.s:6048   .bss.hiwdg:00000000 hiwdg
C:\Users\User\AppData\Local\Temp\ccEEhKx4.s:6041   .bss.hi2c2:00000000 hi2c2
C:\Users\User\AppData\Local\Temp\ccEEhKx4.s:6220   .data.sleep_delay:00000000 sleep_delay
C:\Users\User\AppData\Local\Temp\ccEEhKx4.s:6204   .data.mode_delay:00000000 mode_delay
C:\Users\User\AppData\Local\Temp\ccEEhKx4.s:6111   .bss.start_minutes:00000000 start_minutes
C:\Users\User\AppData\Local\Temp\ccEEhKx4.s:6104   .bss.start_hour:00000000 start_hour
C:\Users\User\AppData\Local\Temp\ccEEhKx4.s:6080   .bss.mode:00000000 mode
C:\Users\User\AppData\Local\Temp\ccEEhKx4.s:6086   .bss.old_buttons:00000000 old_buttons
C:\Users\User\AppData\Local\Temp\ccEEhKx4.s:6020   .bss.buttons:00000000 buttons
C:\Users\User\AppData\Local\Temp\ccEEhKx4.s:6097   .bss.seconds:00000000 seconds
C:\Users\User\AppData\Local\Temp\ccEEhKx4.s:6027   .bss.cc:00000000 cc
C:\Users\User\AppData\Local\Temp\ccEEhKx4.s:6118   .bss.testas:00000000 testas
C:\Users\User\AppData\Local\Temp\ccEEhKx4.s:6074   .bss.invertuotas:00000000 invertuotas
C:\Users\User\AppData\Local\Temp\ccEEhKx4.s:6227   .rodata.chartable:00000000 chartable
C:\Users\User\AppData\Local\Temp\ccEEhKx4.s:6092   .bss.oled_line:00000000 oled_line
C:\Users\User\AppData\Local\Temp\ccEEhKx4.s:6130   .data.font:00000000 font
C:\Users\User\AppData\Local\Temp\ccEEhKx4.s:6123   .data.LastHour:00000000 LastHour
C:\Users\User\AppData\Local\Temp\ccEEhKx4.s:6211   .data.oldTime:00000000 oldTime
C:\Users\User\AppData\Local\Temp\ccEEhKx4.s:6034   .bss.currTime:00000000 currTime
C:\Users\User\AppData\Local\Temp\ccEEhKx4.s:6012   .rodata:00000000 $d
C:\Users\User\AppData\Local\Temp\ccEEhKx4.s:6021   .bss.buttons:00000000 $d
C:\Users\User\AppData\Local\Temp\ccEEhKx4.s:6023   .bss.cc:00000000 $d
C:\Users\User\AppData\Local\Temp\ccEEhKx4.s:6030   .bss.currTime:00000000 $d
C:\Users\User\AppData\Local\Temp\ccEEhKx4.s:6037   .bss.hi2c2:00000000 $d
C:\Users\User\AppData\Local\Temp\ccEEhKx4.s:6044   .bss.hiwdg:00000000 $d
C:\Users\User\AppData\Local\Temp\ccEEhKx4.s:6051   .bss.hrtc:00000000 $d
C:\Users\User\AppData\Local\Temp\ccEEhKx4.s:6058   .bss.htim1:00000000 $d
C:\Users\User\AppData\Local\Temp\ccEEhKx4.s:6065   .bss.htim2:00000000 $d
C:\Users\User\AppData\Local\Temp\ccEEhKx4.s:6075   .bss.invertuotas:00000000 $d
C:\Users\User\AppData\Local\Temp\ccEEhKx4.s:6081   .bss.mode:00000000 $d
C:\Users\User\AppData\Local\Temp\ccEEhKx4.s:6087   .bss.old_buttons:00000000 $d
C:\Users\User\AppData\Local\Temp\ccEEhKx4.s:6093   .bss.oled_line:00000000 $d
C:\Users\User\AppData\Local\Temp\ccEEhKx4.s:6098   .bss.seconds:00000000 $d
C:\Users\User\AppData\Local\Temp\ccEEhKx4.s:6100   .bss.start_hour:00000000 $d
C:\Users\User\AppData\Local\Temp\ccEEhKx4.s:6107   .bss.start_minutes:00000000 $d
C:\Users\User\AppData\Local\Temp\ccEEhKx4.s:6114   .bss.testas:00000000 $d
C:\Users\User\AppData\Local\Temp\ccEEhKx4.s:6126   .data.font:00000000 $d
C:\Users\User\AppData\Local\Temp\ccEEhKx4.s:6193   .data.init1.0:00000000 $d
C:\Users\User\AppData\Local\Temp\ccEEhKx4.s:6197   .data.init1.0:00000000 init1.0
C:\Users\User\AppData\Local\Temp\ccEEhKx4.s:6207   .data.oldTime:00000000 $d
C:\Users\User\AppData\Local\Temp\ccEEhKx4.s:6216   .data.sleep_delay:00000000 $d
C:\Users\User\AppData\Local\Temp\ccEEhKx4.s:6223   .rodata.chartable:00000000 $d

UNDEFINED SYMBOLS
HAL_I2C_IsDeviceReady
HAL_GPIO_WritePin
ARM GAS  C:\Users\User\AppData\Local\Temp\ccEEhKx4.s 			page 163


HAL_GPIO_Init
HAL_RTC_GetTime
HAL_RTC_GetDate
HAL_I2C_Master_Transmit
HAL_Delay
malloc
memcpy
free
HAL_IWDG_Refresh
HAL_TIM_PWM_Start
HAL_TIM_Base_Start_IT
HAL_PWR_EnableBkUpAccess
HAL_RTCEx_BKUPRead
HAL_GPIO_ReadPin
strlen
strtok
atoi
CDC_Transmit_FS
HAL_RTCEx_BKUPWrite
HAL_GPIO_TogglePin
HAL_RTC_SetTime
HAL_RTC_SetDate
HAL_RTC_Init
HAL_NVIC_SetPriority
HAL_NVIC_EnableIRQ
memset
HAL_TIM_Base_Init
HAL_TIM_ConfigClockSource
HAL_TIM_PWM_Init
HAL_TIMEx_MasterConfigSynchronization
HAL_TIM_PWM_ConfigChannel
HAL_TIMEx_ConfigBreakDeadTime
HAL_TIM_MspPostInit
HAL_I2C_Init
HAL_IWDG_Init
HAL_TIM_OC_Init
HAL_TIM_OC_ConfigChannel
HAL_RCC_OscConfig
HAL_RCC_ClockConfig
HAL_RCCEx_PeriphCLKConfig
HAL_Init
MX_USB_DEVICE_Init
